
/home/fanhc/wasm-aot/app/benchmark/wavelet.elf:     file format elf32-avr


Disassembly of section .text:

00000000 <__vectors>:
       0:	0c 94 87 00 	jmp	0x10e	; 0x10e <__ctors_end>
       4:	0c 94 a6 00 	jmp	0x14c	; 0x14c <__bad_interrupt>
       8:	0c 94 a6 00 	jmp	0x14c	; 0x14c <__bad_interrupt>
       c:	0c 94 a6 00 	jmp	0x14c	; 0x14c <__bad_interrupt>
      10:	0c 94 a6 00 	jmp	0x14c	; 0x14c <__bad_interrupt>
      14:	0c 94 a6 00 	jmp	0x14c	; 0x14c <__bad_interrupt>
      18:	0c 94 a6 00 	jmp	0x14c	; 0x14c <__bad_interrupt>
      1c:	0c 94 a6 00 	jmp	0x14c	; 0x14c <__bad_interrupt>
      20:	0c 94 a6 00 	jmp	0x14c	; 0x14c <__bad_interrupt>
      24:	0c 94 a6 00 	jmp	0x14c	; 0x14c <__bad_interrupt>
      28:	0c 94 a6 00 	jmp	0x14c	; 0x14c <__bad_interrupt>
      2c:	0c 94 a6 00 	jmp	0x14c	; 0x14c <__bad_interrupt>
      30:	0c 94 a6 00 	jmp	0x14c	; 0x14c <__bad_interrupt>
      34:	0c 94 a6 00 	jmp	0x14c	; 0x14c <__bad_interrupt>
      38:	0c 94 a6 00 	jmp	0x14c	; 0x14c <__bad_interrupt>
      3c:	0c 94 a6 00 	jmp	0x14c	; 0x14c <__bad_interrupt>
      40:	0c 94 a6 00 	jmp	0x14c	; 0x14c <__bad_interrupt>
      44:	0c 94 a6 00 	jmp	0x14c	; 0x14c <__bad_interrupt>
      48:	0c 94 a6 00 	jmp	0x14c	; 0x14c <__bad_interrupt>
      4c:	0c 94 a6 00 	jmp	0x14c	; 0x14c <__bad_interrupt>
      50:	0c 94 a6 00 	jmp	0x14c	; 0x14c <__bad_interrupt>
      54:	0c 94 a6 00 	jmp	0x14c	; 0x14c <__bad_interrupt>
      58:	0c 94 a6 00 	jmp	0x14c	; 0x14c <__bad_interrupt>
      5c:	0c 94 a6 00 	jmp	0x14c	; 0x14c <__bad_interrupt>
      60:	0c 94 a6 00 	jmp	0x14c	; 0x14c <__bad_interrupt>
      64:	0c 94 a6 00 	jmp	0x14c	; 0x14c <__bad_interrupt>
      68:	0c 94 a6 00 	jmp	0x14c	; 0x14c <__bad_interrupt>
      6c:	0c 94 a6 00 	jmp	0x14c	; 0x14c <__bad_interrupt>
      70:	0c 94 a6 00 	jmp	0x14c	; 0x14c <__bad_interrupt>
      74:	0c 94 a6 00 	jmp	0x14c	; 0x14c <__bad_interrupt>
      78:	0c 94 a6 00 	jmp	0x14c	; 0x14c <__bad_interrupt>
      7c:	0c 94 a6 00 	jmp	0x14c	; 0x14c <__bad_interrupt>
      80:	0c 94 a6 00 	jmp	0x14c	; 0x14c <__bad_interrupt>
      84:	0c 94 a6 00 	jmp	0x14c	; 0x14c <__bad_interrupt>
      88:	0c 94 a6 00 	jmp	0x14c	; 0x14c <__bad_interrupt>
      8c:	07 63       	ori	r16, 0x37	; 55
      8e:	42 36       	cpi	r20, 0x62	; 98
      90:	b7 9b       	sbis	0x16, 7	; 22
      92:	d8 a7       	std	Y+40, r29	; 0x28
      94:	1a 39       	cpi	r17, 0x9A	; 154
      96:	68 56       	subi	r22, 0x68	; 104
      98:	18 ae       	std	Y+56, r1	; 0x38
      9a:	ba ab       	std	Y+50, r27	; 0x32
      9c:	55 8c       	ldd	r5, Z+29	; 0x1d
      9e:	1d 3c       	cpi	r17, 0xCD	; 205
      a0:	b7 cc       	rjmp	.-1682   	; 0xfffffa10 <__eeprom_end+0xff7efa10>
      a2:	57 63       	ori	r21, 0x37	; 55
      a4:	bd 6d       	ori	r27, 0xDD	; 221
      a6:	ed fd       	.word	0xfded	; ????
      a8:	75 3e       	cpi	r23, 0xE5	; 229
      aa:	f6 17       	cp	r31, r22
      ac:	72 31       	cpi	r23, 0x12	; 18
      ae:	bf 00       	.word	0x00bf	; ????
      b0:	00 00       	nop
      b2:	80 3f       	cpi	r24, 0xF0	; 240
      b4:	08 00       	.word	0x0008	; ????
      b6:	00 00       	nop
      b8:	be 92       	st	-X, r11
      ba:	24 49       	sbci	r18, 0x94	; 148
      bc:	12 3e       	cpi	r17, 0xE2	; 226
      be:	ab aa       	std	Y+51, r10	; 0x33
      c0:	aa 2a       	or	r10, r26
      c2:	be cd       	rjmp	.-1156   	; 0xfffffc40 <__eeprom_end+0xff7efc40>
      c4:	cc cc       	rjmp	.-1640   	; 0xfffffa5e <__eeprom_end+0xff7efa5e>
      c6:	4c 3e       	cpi	r20, 0xEC	; 236
      c8:	00 00       	nop
      ca:	00 80       	ld	r0, Z
      cc:	be ab       	std	Y+54, r27	; 0x36
      ce:	aa aa       	std	Y+50, r10	; 0x32
      d0:	aa 3e       	cpi	r26, 0xEA	; 234
      d2:	00 00       	nop
      d4:	00 00       	nop
      d6:	bf 00       	.word	0x00bf	; ????
      d8:	00 00       	nop
      da:	80 3f       	cpi	r24, 0xF0	; 240
      dc:	00 00       	nop
      de:	00 00       	nop
      e0:	00 08       	sbc	r0, r0
      e2:	41 78       	andi	r20, 0x81	; 129
      e4:	d3 bb       	out	0x13, r29	; 19
      e6:	43 87       	std	Z+11, r20	; 0x0b
      e8:	d1 13       	cpse	r29, r17
      ea:	3d 19       	sub	r19, r13
      ec:	0e 3c       	cpi	r16, 0xCE	; 206
      ee:	c3 bd       	out	0x23, r28	; 35
      f0:	42 82       	std	Z+2, r4	; 0x02
      f2:	ad 2b       	or	r26, r29
      f4:	3e 68       	ori	r19, 0x8E	; 142
      f6:	ec 82       	std	Y+4, r14	; 0x04
      f8:	76 be       	out	0x36, r7	; 54
      fa:	d9 8f       	std	Y+25, r29	; 0x19
      fc:	e1 a9       	ldd	r30, Z+49	; 0x31
      fe:	3e 4c       	sbci	r19, 0xCE	; 206
     100:	80 ef       	ldi	r24, 0xF0	; 240
     102:	ff be       	out	0x3f, r15	; 63
     104:	01 c4       	rjmp	.+2050   	; 0x908 <__LOCK_REGION_LENGTH__+0x508>
     106:	ff 7f       	andi	r31, 0xFF	; 255
     108:	3f 00       	.word	0x003f	; ????
     10a:	00 00       	nop
	...

0000010e <__ctors_end>:
     10e:	11 24       	eor	r1, r1
     110:	1f be       	out	0x3f, r1	; 63
     112:	cf ef       	ldi	r28, 0xFF	; 255
     114:	d0 e1       	ldi	r29, 0x10	; 16
     116:	de bf       	out	0x3e, r29	; 62
     118:	cd bf       	out	0x3d, r28	; 61

0000011a <__do_copy_data>:
     11a:	11 e0       	ldi	r17, 0x01	; 1
     11c:	a0 e0       	ldi	r26, 0x00	; 0
     11e:	b1 e0       	ldi	r27, 0x01	; 1
     120:	ea ee       	ldi	r30, 0xEA	; 234
     122:	f8 e1       	ldi	r31, 0x18	; 24
     124:	00 e0       	ldi	r16, 0x00	; 0
     126:	0b bf       	out	0x3b, r16	; 59
     128:	02 c0       	rjmp	.+4      	; 0x12e <__do_copy_data+0x14>
     12a:	07 90       	elpm	r0, Z+
     12c:	0d 92       	st	X+, r0
     12e:	a4 34       	cpi	r26, 0x44	; 68
     130:	b1 07       	cpc	r27, r17
     132:	d9 f7       	brne	.-10     	; 0x12a <__do_copy_data+0x10>

00000134 <__do_clear_bss>:
     134:	21 e0       	ldi	r18, 0x01	; 1
     136:	a4 e4       	ldi	r26, 0x44	; 68
     138:	b1 e0       	ldi	r27, 0x01	; 1
     13a:	01 c0       	rjmp	.+2      	; 0x13e <.do_clear_bss_start>

0000013c <.do_clear_bss_loop>:
     13c:	1d 92       	st	X+, r1

0000013e <.do_clear_bss_start>:
     13e:	aa 3c       	cpi	r26, 0xCA	; 202
     140:	b2 07       	cpc	r27, r18
     142:	e1 f7       	brne	.-8      	; 0x13c <.do_clear_bss_loop>
     144:	0e 94 f6 00 	call	0x1ec	; 0x1ec <main>
     148:	0c 94 73 0c 	jmp	0x18e6	; 0x18e6 <_exit>

0000014c <__bad_interrupt>:
     14c:	0c 94 00 00 	jmp	0	; 0x0 <__vectors>

00000150 <avr_Print>:
     150:	fc 01       	movw	r30, r24
     152:	8a e0       	ldi	r24, 0x0A	; 10
     154:	2b e0       	ldi	r18, 0x0B	; 11
     156:	91 91       	ld	r25, Z+
     158:	99 23       	and	r25, r25
     15a:	51 f0       	breq	.+20     	; 0x170 <avr_Print+0x20>
     15c:	9a 30       	cpi	r25, 0x0A	; 10
     15e:	19 f4       	brne	.+6      	; 0x166 <avr_Print+0x16>
     160:	20 93 c4 01 	sts	0x01C4, r18	; 0x8001c4 <debugbuf1>
     164:	f8 cf       	rjmp	.-16     	; 0x156 <avr_Print+0x6>
     166:	90 93 c5 01 	sts	0x01C5, r25	; 0x8001c5 <debugbuf1+0x1>
     16a:	80 93 c4 01 	sts	0x01C4, r24	; 0x8001c4 <debugbuf1>
     16e:	f3 cf       	rjmp	.-26     	; 0x156 <avr_Print+0x6>
     170:	08 95       	ret

00000172 <avr_VPrint>:
     172:	9b 01       	movw	r18, r22
     174:	ac 01       	movw	r20, r24
     176:	60 e8       	ldi	r22, 0x80	; 128
     178:	70 e0       	ldi	r23, 0x00	; 0
     17a:	84 e4       	ldi	r24, 0x44	; 68
     17c:	91 e0       	ldi	r25, 0x01	; 1
     17e:	0e 94 80 09 	call	0x1300	; 0x1300 <vsnprintf>
     182:	84 e4       	ldi	r24, 0x44	; 68
     184:	91 e0       	ldi	r25, 0x01	; 1
     186:	0c 94 a8 00 	jmp	0x150	; 0x150 <avr_Print>

0000018a <avr_Printf>:
     18a:	cf 93       	push	r28
     18c:	df 93       	push	r29
     18e:	cd b7       	in	r28, 0x3d	; 61
     190:	de b7       	in	r29, 0x3e	; 62
     192:	be 01       	movw	r22, r28
     194:	6b 5f       	subi	r22, 0xFB	; 251
     196:	7f 4f       	sbci	r23, 0xFF	; 255
     198:	fb 01       	movw	r30, r22
     19a:	81 91       	ld	r24, Z+
     19c:	91 91       	ld	r25, Z+
     19e:	bf 01       	movw	r22, r30
     1a0:	0e 94 b9 00 	call	0x172	; 0x172 <avr_VPrint>
     1a4:	df 91       	pop	r29
     1a6:	cf 91       	pop	r28
     1a8:	08 95       	ret

000001aa <rtc_startBenchmarkMeasurement_Native>:
     1aa:	81 e0       	ldi	r24, 0x01	; 1
     1ac:	80 93 c9 01 	sts	0x01C9, r24	; 0x8001c9 <avroraTraceEnabledVariable>
     1b0:	08 95       	ret

000001b2 <rtc_stopBenchmarkMeasurement>:
     1b2:	10 92 c9 01 	sts	0x01C9, r1	; 0x8001c9 <avroraTraceEnabledVariable>
     1b6:	08 95       	ret

000001b8 <printInt>:
     1b8:	9f 93       	push	r25
     1ba:	8f 93       	push	r24
     1bc:	80 e3       	ldi	r24, 0x30	; 48
     1be:	91 e0       	ldi	r25, 0x01	; 1
     1c0:	9f 93       	push	r25
     1c2:	8f 93       	push	r24
     1c4:	0e 94 c5 00 	call	0x18a	; 0x18a <avr_Printf>
     1c8:	0f 90       	pop	r0
     1ca:	0f 90       	pop	r0
     1cc:	0f 90       	pop	r0
     1ce:	0f 90       	pop	r0
     1d0:	08 95       	ret

000001d2 <printStr>:
     1d2:	9f 93       	push	r25
     1d4:	8f 93       	push	r24
     1d6:	84 e3       	ldi	r24, 0x34	; 52
     1d8:	91 e0       	ldi	r25, 0x01	; 1
     1da:	9f 93       	push	r25
     1dc:	8f 93       	push	r24
     1de:	0e 94 c5 00 	call	0x18a	; 0x18a <avr_Printf>
     1e2:	0f 90       	pop	r0
     1e4:	0f 90       	pop	r0
     1e6:	0f 90       	pop	r0
     1e8:	0f 90       	pop	r0
     1ea:	08 95       	ret

000001ec <main>:
     1ec:	0e 94 fc 00 	call	0x1f8	; 0x1f8 <javax_rtcbench_RTCBenchmark_void_test_native>
     1f0:	98 95       	break
     1f2:	80 e0       	ldi	r24, 0x00	; 0
     1f4:	90 e0       	ldi	r25, 0x00	; 0
     1f6:	08 95       	ret

000001f8 <javax_rtcbench_RTCBenchmark_void_test_native>:
     1f8:	2f 92       	push	r2
     1fa:	3f 92       	push	r3
     1fc:	4f 92       	push	r4
     1fe:	5f 92       	push	r5
     200:	6f 92       	push	r6
     202:	7f 92       	push	r7
     204:	8f 92       	push	r8
     206:	9f 92       	push	r9
     208:	af 92       	push	r10
     20a:	bf 92       	push	r11
     20c:	cf 92       	push	r12
     20e:	df 92       	push	r13
     210:	ef 92       	push	r14
     212:	ff 92       	push	r15
     214:	0f 93       	push	r16
     216:	1f 93       	push	r17
     218:	cf 93       	push	r28
     21a:	df 93       	push	r29
     21c:	cd b7       	in	r28, 0x3d	; 61
     21e:	de b7       	in	r29, 0x3e	; 62
     220:	c0 53       	subi	r28, 0x30	; 48
     222:	da 40       	sbci	r29, 0x0A	; 10
     224:	0f b6       	in	r0, 0x3f	; 63
     226:	f8 94       	cli
     228:	de bf       	out	0x3e, r29	; 62
     22a:	0f be       	out	0x3f, r0	; 63
     22c:	cd bf       	out	0x3d, r28	; 61
     22e:	3e 01       	movw	r6, r28
     230:	2f ef       	ldi	r18, 0xFF	; 255
     232:	62 1a       	sub	r6, r18
     234:	26 ef       	ldi	r18, 0xF6	; 246
     236:	72 0a       	sbc	r7, r18
     238:	80 e0       	ldi	r24, 0x00	; 0
     23a:	91 e0       	ldi	r25, 0x01	; 1
     23c:	f3 01       	movw	r30, r6
     23e:	9c 01       	movw	r18, r24
     240:	11 92       	st	Z+, r1
     242:	21 50       	subi	r18, 0x01	; 1
     244:	30 40       	sbci	r19, 0x00	; 0
     246:	e1 f7       	brne	.-8      	; 0x240 <javax_rtcbench_RTCBenchmark_void_test_native+0x48>
     248:	2e 01       	movw	r4, r28
     24a:	3f ef       	ldi	r19, 0xFF	; 255
     24c:	43 1a       	sub	r4, r19
     24e:	37 ef       	ldi	r19, 0xF7	; 247
     250:	53 0a       	sbc	r5, r19
     252:	f2 01       	movw	r30, r4
     254:	9c 01       	movw	r18, r24
     256:	11 92       	st	Z+, r1
     258:	21 50       	subi	r18, 0x01	; 1
     25a:	30 40       	sbci	r19, 0x00	; 0
     25c:	e1 f7       	brne	.-8      	; 0x256 <javax_rtcbench_RTCBenchmark_void_test_native+0x5e>
     25e:	1e 01       	movw	r2, r28
     260:	3f ef       	ldi	r19, 0xFF	; 255
     262:	23 1a       	sub	r2, r19
     264:	38 ef       	ldi	r19, 0xF8	; 248
     266:	33 0a       	sbc	r3, r19
     268:	f1 01       	movw	r30, r2
     26a:	9c 01       	movw	r18, r24
     26c:	11 92       	st	Z+, r1
     26e:	21 50       	subi	r18, 0x01	; 1
     270:	30 40       	sbci	r19, 0x00	; 0
     272:	e1 f7       	brne	.-8      	; 0x26c <javax_rtcbench_RTCBenchmark_void_test_native+0x74>
     274:	ce 01       	movw	r24, r28
     276:	01 96       	adiw	r24, 0x01	; 1
     278:	4c 01       	movw	r8, r24
     27a:	80 e0       	ldi	r24, 0x00	; 0
     27c:	97 e0       	ldi	r25, 0x07	; 7
     27e:	f4 01       	movw	r30, r8
     280:	9c 01       	movw	r18, r24
     282:	11 92       	st	Z+, r1
     284:	21 50       	subi	r18, 0x01	; 1
     286:	30 40       	sbci	r19, 0x00	; 0
     288:	e1 f7       	brne	.-8      	; 0x282 <javax_rtcbench_RTCBenchmark_void_test_native+0x8a>
     28a:	88 e1       	ldi	r24, 0x18	; 24
     28c:	e0 e0       	ldi	r30, 0x00	; 0
     28e:	f1 e0       	ldi	r31, 0x01	; 1
     290:	de 01       	movw	r26, r28
     292:	a7 5e       	subi	r26, 0xE7	; 231
     294:	b5 4f       	sbci	r27, 0xF5	; 245
     296:	01 90       	ld	r0, Z+
     298:	0d 92       	st	X+, r0
     29a:	8a 95       	dec	r24
     29c:	e1 f7       	brne	.-8      	; 0x296 <javax_rtcbench_RTCBenchmark_void_test_native+0x9e>
     29e:	88 e1       	ldi	r24, 0x18	; 24
     2a0:	e8 e1       	ldi	r30, 0x18	; 24
     2a2:	f1 e0       	ldi	r31, 0x01	; 1
     2a4:	de 01       	movw	r26, r28
     2a6:	af 5f       	subi	r26, 0xFF	; 255
     2a8:	b5 4f       	sbci	r27, 0xF5	; 245
     2aa:	01 90       	ld	r0, Z+
     2ac:	0d 92       	st	X+, r0
     2ae:	8a 95       	dec	r24
     2b0:	e1 f7       	brne	.-8      	; 0x2aa <javax_rtcbench_RTCBenchmark_void_test_native+0xb2>
     2b2:	88 e3       	ldi	r24, 0x38	; 56
     2b4:	91 e0       	ldi	r25, 0x01	; 1
     2b6:	0e 94 e9 00 	call	0x1d2	; 0x1d2 <printStr>
     2ba:	84 e0       	ldi	r24, 0x04	; 4
     2bc:	90 e0       	ldi	r25, 0x00	; 0
     2be:	0e 94 dc 00 	call	0x1b8	; 0x1b8 <printInt>
     2c2:	0e 94 d5 00 	call	0x1aa	; 0x1aa <rtc_startBenchmarkMeasurement_Native>
     2c6:	86 e0       	ldi	r24, 0x06	; 6
     2c8:	a8 2e       	mov	r10, r24
     2ca:	b1 2c       	mov	r11, r1
     2cc:	96 e0       	ldi	r25, 0x06	; 6
     2ce:	c9 2e       	mov	r12, r25
     2d0:	d1 2c       	mov	r13, r1
     2d2:	20 e4       	ldi	r18, 0x40	; 64
     2d4:	e2 2e       	mov	r14, r18
     2d6:	f1 2c       	mov	r15, r1
     2d8:	8e 01       	movw	r16, r28
     2da:	0f 5f       	subi	r16, 0xFF	; 255
     2dc:	15 4f       	sbci	r17, 0xF5	; 245
     2de:	9e 01       	movw	r18, r28
     2e0:	27 5e       	subi	r18, 0xE7	; 231
     2e2:	35 4f       	sbci	r19, 0xF5	; 245
     2e4:	a2 01       	movw	r20, r4
     2e6:	b1 01       	movw	r22, r2
     2e8:	c3 01       	movw	r24, r6
     2ea:	0e 94 3f 05 	call	0xa7e	; 0xa7e <DWT1D>
     2ee:	0e 94 d9 00 	call	0x1b2	; 0x1b2 <rtc_stopBenchmarkMeasurement>
     2f2:	c0 5d       	subi	r28, 0xD0	; 208
     2f4:	d5 4f       	sbci	r29, 0xF5	; 245
     2f6:	0f b6       	in	r0, 0x3f	; 63
     2f8:	f8 94       	cli
     2fa:	de bf       	out	0x3e, r29	; 62
     2fc:	0f be       	out	0x3f, r0	; 63
     2fe:	cd bf       	out	0x3d, r28	; 61
     300:	df 91       	pop	r29
     302:	cf 91       	pop	r28
     304:	1f 91       	pop	r17
     306:	0f 91       	pop	r16
     308:	ff 90       	pop	r15
     30a:	ef 90       	pop	r14
     30c:	df 90       	pop	r13
     30e:	cf 90       	pop	r12
     310:	bf 90       	pop	r11
     312:	af 90       	pop	r10
     314:	9f 90       	pop	r9
     316:	8f 90       	pop	r8
     318:	7f 90       	pop	r7
     31a:	6f 90       	pop	r6
     31c:	5f 90       	pop	r5
     31e:	4f 90       	pop	r4
     320:	3f 90       	pop	r3
     322:	2f 90       	pop	r2
     324:	08 95       	ret

00000326 <Covlution>:
     326:	2f 92       	push	r2
     328:	3f 92       	push	r3
     32a:	4f 92       	push	r4
     32c:	5f 92       	push	r5
     32e:	6f 92       	push	r6
     330:	7f 92       	push	r7
     332:	8f 92       	push	r8
     334:	9f 92       	push	r9
     336:	af 92       	push	r10
     338:	bf 92       	push	r11
     33a:	cf 92       	push	r12
     33c:	df 92       	push	r13
     33e:	ef 92       	push	r14
     340:	ff 92       	push	r15
     342:	0f 93       	push	r16
     344:	1f 93       	push	r17
     346:	cf 93       	push	r28
     348:	df 93       	push	r29
     34a:	cd b7       	in	r28, 0x3d	; 61
     34c:	de b7       	in	r29, 0x3e	; 62
     34e:	a0 97       	sbiw	r28, 0x20	; 32
     350:	0f b6       	in	r0, 0x3f	; 63
     352:	f8 94       	cli
     354:	de bf       	out	0x3e, r29	; 62
     356:	0f be       	out	0x3f, r0	; 63
     358:	cd bf       	out	0x3d, r28	; 61
     35a:	2c 01       	movw	r4, r24
     35c:	7a 87       	std	Y+10, r23	; 0x0a
     35e:	69 87       	std	Y+9, r22	; 0x09
     360:	5c 87       	std	Y+12, r21	; 0x0c
     362:	4b 87       	std	Y+11, r20	; 0x0b
     364:	3c 83       	std	Y+4, r19	; 0x04
     366:	2b 83       	std	Y+3, r18	; 0x03
     368:	1e 87       	std	Y+14, r17	; 0x0e
     36a:	0d 87       	std	Y+13, r16	; 0x0d
     36c:	17 01       	movw	r2, r14
     36e:	38 87       	std	Y+8, r19	; 0x08
     370:	2f 83       	std	Y+7, r18	; 0x07
     372:	f9 01       	movw	r30, r18
     374:	80 e0       	ldi	r24, 0x00	; 0
     376:	90 e0       	ldi	r25, 0x00	; 0
     378:	2d 85       	ldd	r18, Y+13	; 0x0d
     37a:	3e 85       	ldd	r19, Y+14	; 0x0e
     37c:	82 17       	cp	r24, r18
     37e:	93 07       	cpc	r25, r19
     380:	34 f4       	brge	.+12     	; 0x38e <Covlution+0x68>
     382:	11 92       	st	Z+, r1
     384:	11 92       	st	Z+, r1
     386:	11 92       	st	Z+, r1
     388:	11 92       	st	Z+, r1
     38a:	01 96       	adiw	r24, 0x01	; 1
     38c:	f5 cf       	rjmp	.-22     	; 0x378 <Covlution+0x52>
     38e:	c1 01       	movw	r24, r2
     390:	37 fc       	sbrc	r3, 7
     392:	01 96       	adiw	r24, 0x01	; 1
     394:	fc 01       	movw	r30, r24
     396:	f5 95       	asr	r31
     398:	e7 95       	ror	r30
     39a:	fa 83       	std	Y+2, r31	; 0x02
     39c:	e9 83       	std	Y+1, r30	; 0x01
     39e:	31 01       	movw	r6, r2
     3a0:	37 fe       	sbrs	r3, 7
     3a2:	03 c0       	rjmp	.+6      	; 0x3aa <Covlution+0x84>
     3a4:	ff ef       	ldi	r31, 0xFF	; 255
     3a6:	6f 1a       	sub	r6, r31
     3a8:	7f 0a       	sbc	r7, r31
     3aa:	75 94       	asr	r7
     3ac:	67 94       	ror	r6
     3ae:	22 27       	eor	r18, r18
     3b0:	33 27       	eor	r19, r19
     3b2:	26 19       	sub	r18, r6
     3b4:	37 09       	sbc	r19, r7
     3b6:	3c 8b       	std	Y+20, r19	; 0x14
     3b8:	2b 8b       	std	Y+19, r18	; 0x13
     3ba:	8d 85       	ldd	r24, Y+13	; 0x0d
     3bc:	9e 85       	ldd	r25, Y+14	; 0x0e
     3be:	28 0f       	add	r18, r24
     3c0:	39 1f       	adc	r19, r25
     3c2:	3a 8b       	std	Y+18, r19	; 0x12
     3c4:	29 8b       	std	Y+17, r18	; 0x11
     3c6:	e9 81       	ldd	r30, Y+1	; 0x01
     3c8:	fa 81       	ldd	r31, Y+2	; 0x02
     3ca:	ee 0f       	add	r30, r30
     3cc:	ff 1f       	adc	r31, r31
     3ce:	ee 0f       	add	r30, r30
     3d0:	ff 1f       	adc	r31, r31
     3d2:	f8 8f       	std	Y+24, r31	; 0x18
     3d4:	ef 8b       	std	Y+23, r30	; 0x17
     3d6:	22 0f       	add	r18, r18
     3d8:	33 1f       	adc	r19, r19
     3da:	22 0f       	add	r18, r18
     3dc:	33 1f       	adc	r19, r19
     3de:	3e 8b       	std	Y+22, r19	; 0x16
     3e0:	2d 8b       	std	Y+21, r18	; 0x15
     3e2:	0b 81       	ldd	r16, Y+3	; 0x03
     3e4:	1c 81       	ldd	r17, Y+4	; 0x04
     3e6:	e1 2c       	mov	r14, r1
     3e8:	f1 2c       	mov	r15, r1
     3ea:	18 8a       	std	Y+16, r1	; 0x10
     3ec:	1f 86       	std	Y+15, r1	; 0x0f
     3ee:	ef 85       	ldd	r30, Y+15	; 0x0f
     3f0:	f8 89       	ldd	r31, Y+16	; 0x10
     3f2:	29 81       	ldd	r18, Y+1	; 0x01
     3f4:	3a 81       	ldd	r19, Y+2	; 0x02
     3f6:	e2 17       	cp	r30, r18
     3f8:	f3 07       	cpc	r31, r19
     3fa:	0c f0       	brlt	.+2      	; 0x3fe <Covlution+0xd8>
     3fc:	70 c0       	rjmp	.+224    	; 0x4de <__LOCK_REGION_LENGTH__+0xde>
     3fe:	a9 80       	ldd	r10, Y+1	; 0x01
     400:	ba 80       	ldd	r11, Y+2	; 0x02
     402:	2f 85       	ldd	r18, Y+15	; 0x0f
     404:	38 89       	ldd	r19, Y+16	; 0x10
     406:	a2 1a       	sub	r10, r18
     408:	b3 0a       	sbc	r11, r19
     40a:	42 01       	movw	r8, r4
     40c:	cf 88       	ldd	r12, Y+23	; 0x17
     40e:	d8 8c       	ldd	r13, Y+24	; 0x18
     410:	ce 18       	sub	r12, r14
     412:	df 08       	sbc	r13, r15
     414:	89 85       	ldd	r24, Y+9	; 0x09
     416:	9a 85       	ldd	r25, Y+10	; 0x0a
     418:	c8 0e       	add	r12, r24
     41a:	d9 1e       	adc	r13, r25
     41c:	a2 14       	cp	r10, r2
     41e:	b3 04       	cpc	r11, r3
     420:	04 f5       	brge	.+64     	; 0x462 <__LOCK_REGION_LENGTH__+0x62>
     422:	f4 01       	movw	r30, r8
     424:	61 91       	ld	r22, Z+
     426:	71 91       	ld	r23, Z+
     428:	81 91       	ld	r24, Z+
     42a:	91 91       	ld	r25, Z+
     42c:	4f 01       	movw	r8, r30
     42e:	f6 01       	movw	r30, r12
     430:	21 91       	ld	r18, Z+
     432:	31 91       	ld	r19, Z+
     434:	41 91       	ld	r20, Z+
     436:	51 91       	ld	r21, Z+
     438:	6f 01       	movw	r12, r30
     43a:	0e 94 8e 07 	call	0xf1c	; 0xf1c <__mulsf3>
     43e:	9b 01       	movw	r18, r22
     440:	ac 01       	movw	r20, r24
     442:	f8 01       	movw	r30, r16
     444:	60 81       	ld	r22, Z
     446:	71 81       	ldd	r23, Z+1	; 0x01
     448:	82 81       	ldd	r24, Z+2	; 0x02
     44a:	93 81       	ldd	r25, Z+3	; 0x03
     44c:	0e 94 f9 05 	call	0xbf2	; 0xbf2 <__addsf3>
     450:	f8 01       	movw	r30, r16
     452:	60 83       	st	Z, r22
     454:	71 83       	std	Z+1, r23	; 0x01
     456:	82 83       	std	Z+2, r24	; 0x02
     458:	93 83       	std	Z+3, r25	; 0x03
     45a:	ff ef       	ldi	r31, 0xFF	; 255
     45c:	af 1a       	sub	r10, r31
     45e:	bf 0a       	sbc	r11, r31
     460:	dd cf       	rjmp	.-70     	; 0x41c <__LOCK_REGION_LENGTH__+0x1c>
     462:	a9 88       	ldd	r10, Y+17	; 0x11
     464:	ba 88       	ldd	r11, Y+18	; 0x12
     466:	2f 85       	ldd	r18, Y+15	; 0x0f
     468:	38 89       	ldd	r19, Y+16	; 0x10
     46a:	a2 0e       	add	r10, r18
     46c:	b3 1e       	adc	r11, r19
     46e:	cd 88       	ldd	r12, Y+21	; 0x15
     470:	de 88       	ldd	r13, Y+22	; 0x16
     472:	ce 0c       	add	r12, r14
     474:	df 1c       	adc	r13, r15
     476:	c4 0c       	add	r12, r4
     478:	d5 1c       	adc	r13, r5
     47a:	89 84       	ldd	r8, Y+9	; 0x09
     47c:	9a 84       	ldd	r9, Y+10	; 0x0a
     47e:	2d 85       	ldd	r18, Y+13	; 0x0d
     480:	3e 85       	ldd	r19, Y+14	; 0x0e
     482:	a2 16       	cp	r10, r18
     484:	b3 06       	cpc	r11, r19
     486:	04 f5       	brge	.+64     	; 0x4c8 <__LOCK_REGION_LENGTH__+0xc8>
     488:	f6 01       	movw	r30, r12
     48a:	61 91       	ld	r22, Z+
     48c:	71 91       	ld	r23, Z+
     48e:	81 91       	ld	r24, Z+
     490:	91 91       	ld	r25, Z+
     492:	6f 01       	movw	r12, r30
     494:	f4 01       	movw	r30, r8
     496:	21 91       	ld	r18, Z+
     498:	31 91       	ld	r19, Z+
     49a:	41 91       	ld	r20, Z+
     49c:	51 91       	ld	r21, Z+
     49e:	4f 01       	movw	r8, r30
     4a0:	0e 94 8e 07 	call	0xf1c	; 0xf1c <__mulsf3>
     4a4:	9b 01       	movw	r18, r22
     4a6:	ac 01       	movw	r20, r24
     4a8:	f8 01       	movw	r30, r16
     4aa:	60 81       	ld	r22, Z
     4ac:	71 81       	ldd	r23, Z+1	; 0x01
     4ae:	82 81       	ldd	r24, Z+2	; 0x02
     4b0:	93 81       	ldd	r25, Z+3	; 0x03
     4b2:	0e 94 f9 05 	call	0xbf2	; 0xbf2 <__addsf3>
     4b6:	f8 01       	movw	r30, r16
     4b8:	60 83       	st	Z, r22
     4ba:	71 83       	std	Z+1, r23	; 0x01
     4bc:	82 83       	std	Z+2, r24	; 0x02
     4be:	93 83       	std	Z+3, r25	; 0x03
     4c0:	ff ef       	ldi	r31, 0xFF	; 255
     4c2:	af 1a       	sub	r10, r31
     4c4:	bf 0a       	sbc	r11, r31
     4c6:	db cf       	rjmp	.-74     	; 0x47e <__LOCK_REGION_LENGTH__+0x7e>
     4c8:	8f 85       	ldd	r24, Y+15	; 0x0f
     4ca:	98 89       	ldd	r25, Y+16	; 0x10
     4cc:	02 96       	adiw	r24, 0x02	; 2
     4ce:	98 8b       	std	Y+16, r25	; 0x10
     4d0:	8f 87       	std	Y+15, r24	; 0x0f
     4d2:	98 e0       	ldi	r25, 0x08	; 8
     4d4:	e9 0e       	add	r14, r25
     4d6:	f1 1c       	adc	r15, r1
     4d8:	08 5f       	subi	r16, 0xF8	; 248
     4da:	1f 4f       	sbci	r17, 0xFF	; 255
     4dc:	88 cf       	rjmp	.-240    	; 0x3ee <Covlution+0xc8>
     4de:	8f 01       	movw	r16, r30
     4e0:	00 0f       	add	r16, r16
     4e2:	11 1f       	adc	r17, r17
     4e4:	00 0f       	add	r16, r16
     4e6:	11 1f       	adc	r17, r17
     4e8:	8b 81       	ldd	r24, Y+3	; 0x03
     4ea:	9c 81       	ldd	r25, Y+4	; 0x04
     4ec:	08 0f       	add	r16, r24
     4ee:	19 1f       	adc	r17, r25
     4f0:	6b 88       	ldd	r6, Y+19	; 0x13
     4f2:	7c 88       	ldd	r7, Y+20	; 0x14
     4f4:	6e 0e       	add	r6, r30
     4f6:	7f 1e       	adc	r7, r31
     4f8:	66 0c       	add	r6, r6
     4fa:	77 1c       	adc	r7, r7
     4fc:	66 0c       	add	r6, r6
     4fe:	77 1c       	adc	r7, r7
     500:	c1 2c       	mov	r12, r1
     502:	d1 2c       	mov	r13, r1
     504:	ad 84       	ldd	r10, Y+13	; 0x0d
     506:	be 84       	ldd	r11, Y+14	; 0x0e
     508:	a2 18       	sub	r10, r2
     50a:	b3 08       	sbc	r11, r3
     50c:	2a 0d       	add	r18, r10
     50e:	3b 1d       	adc	r19, r11
     510:	3a 8f       	std	Y+26, r19	; 0x1a
     512:	29 8f       	std	Y+25, r18	; 0x19
     514:	8f 85       	ldd	r24, Y+15	; 0x0f
     516:	98 89       	ldd	r25, Y+16	; 0x10
     518:	e9 8d       	ldd	r30, Y+25	; 0x19
     51a:	fa 8d       	ldd	r31, Y+26	; 0x1a
     51c:	e8 17       	cp	r30, r24
     51e:	f9 07       	cpc	r31, r25
     520:	1c f5       	brge	.+70     	; 0x568 <__LOCK_REGION_LENGTH__+0x168>
     522:	88 0f       	add	r24, r24
     524:	99 1f       	adc	r25, r25
     526:	88 0f       	add	r24, r24
     528:	99 1f       	adc	r25, r25
     52a:	2b 81       	ldd	r18, Y+3	; 0x03
     52c:	3c 81       	ldd	r19, Y+4	; 0x04
     52e:	82 0f       	add	r24, r18
     530:	93 1f       	adc	r25, r19
     532:	98 a3       	std	Y+32, r25	; 0x20
     534:	8f 8f       	std	Y+31, r24	; 0x1f
     536:	c1 01       	movw	r24, r2
     538:	88 0f       	add	r24, r24
     53a:	99 1f       	adc	r25, r25
     53c:	88 0f       	add	r24, r24
     53e:	99 1f       	adc	r25, r25
     540:	9e 83       	std	Y+6, r25	; 0x06
     542:	8d 83       	std	Y+5, r24	; 0x05
     544:	f5 01       	movw	r30, r10
     546:	ee 0f       	add	r30, r30
     548:	ff 1f       	adc	r31, r31
     54a:	ee 0f       	add	r30, r30
     54c:	ff 1f       	adc	r31, r31
     54e:	f8 8b       	std	Y+16, r31	; 0x10
     550:	ef 87       	std	Y+15, r30	; 0x0f
     552:	61 2c       	mov	r6, r1
     554:	71 2c       	mov	r7, r1
     556:	01 e0       	ldi	r16, 0x01	; 1
     558:	10 e0       	ldi	r17, 0x00	; 0
     55a:	04 97       	sbiw	r24, 0x04	; 4
     55c:	9c 8f       	std	Y+28, r25	; 0x1c
     55e:	8b 8f       	std	Y+27, r24	; 0x1b
     560:	34 96       	adiw	r30, 0x04	; 4
     562:	fe 8f       	std	Y+30, r31	; 0x1e
     564:	ed 8f       	std	Y+29, r30	; 0x1d
     566:	46 c0       	rjmp	.+140    	; 0x5f4 <__LOCK_REGION_LENGTH__+0x1f4>
     568:	46 01       	movw	r8, r12
     56a:	86 0c       	add	r8, r6
     56c:	97 1c       	adc	r9, r7
     56e:	84 0c       	add	r8, r4
     570:	95 1c       	adc	r9, r5
     572:	29 85       	ldd	r18, Y+9	; 0x09
     574:	3a 85       	ldd	r19, Y+10	; 0x0a
     576:	3e 83       	std	Y+6, r19	; 0x06
     578:	2d 83       	std	Y+5, r18	; 0x05
     57a:	e1 2c       	mov	r14, r1
     57c:	f1 2c       	mov	r15, r1
     57e:	e2 14       	cp	r14, r2
     580:	f3 04       	cpc	r15, r3
     582:	14 f5       	brge	.+68     	; 0x5c8 <__LOCK_REGION_LENGTH__+0x1c8>
     584:	f4 01       	movw	r30, r8
     586:	61 91       	ld	r22, Z+
     588:	71 91       	ld	r23, Z+
     58a:	81 91       	ld	r24, Z+
     58c:	91 91       	ld	r25, Z+
     58e:	4f 01       	movw	r8, r30
     590:	ed 81       	ldd	r30, Y+5	; 0x05
     592:	fe 81       	ldd	r31, Y+6	; 0x06
     594:	21 91       	ld	r18, Z+
     596:	31 91       	ld	r19, Z+
     598:	41 91       	ld	r20, Z+
     59a:	51 91       	ld	r21, Z+
     59c:	fe 83       	std	Y+6, r31	; 0x06
     59e:	ed 83       	std	Y+5, r30	; 0x05
     5a0:	0e 94 8e 07 	call	0xf1c	; 0xf1c <__mulsf3>
     5a4:	9b 01       	movw	r18, r22
     5a6:	ac 01       	movw	r20, r24
     5a8:	f8 01       	movw	r30, r16
     5aa:	60 81       	ld	r22, Z
     5ac:	71 81       	ldd	r23, Z+1	; 0x01
     5ae:	82 81       	ldd	r24, Z+2	; 0x02
     5b0:	93 81       	ldd	r25, Z+3	; 0x03
     5b2:	0e 94 f9 05 	call	0xbf2	; 0xbf2 <__addsf3>
     5b6:	f8 01       	movw	r30, r16
     5b8:	60 83       	st	Z, r22
     5ba:	71 83       	std	Z+1, r23	; 0x01
     5bc:	82 83       	std	Z+2, r24	; 0x02
     5be:	93 83       	std	Z+3, r25	; 0x03
     5c0:	ff ef       	ldi	r31, 0xFF	; 255
     5c2:	ef 1a       	sub	r14, r31
     5c4:	ff 0a       	sbc	r15, r31
     5c6:	db cf       	rjmp	.-74     	; 0x57e <__LOCK_REGION_LENGTH__+0x17e>
     5c8:	2f 85       	ldd	r18, Y+15	; 0x0f
     5ca:	38 89       	ldd	r19, Y+16	; 0x10
     5cc:	2e 5f       	subi	r18, 0xFE	; 254
     5ce:	3f 4f       	sbci	r19, 0xFF	; 255
     5d0:	38 8b       	std	Y+16, r19	; 0x10
     5d2:	2f 87       	std	Y+15, r18	; 0x0f
     5d4:	38 e0       	ldi	r19, 0x08	; 8
     5d6:	c3 0e       	add	r12, r19
     5d8:	d1 1c       	adc	r13, r1
     5da:	08 5f       	subi	r16, 0xF8	; 248
     5dc:	1f 4f       	sbci	r17, 0xFF	; 255
     5de:	9a cf       	rjmp	.-204    	; 0x514 <__LOCK_REGION_LENGTH__+0x114>
     5e0:	0e 5f       	subi	r16, 0xFE	; 254
     5e2:	1f 4f       	sbci	r17, 0xFF	; 255
     5e4:	28 e0       	ldi	r18, 0x08	; 8
     5e6:	62 0e       	add	r6, r18
     5e8:	71 1c       	adc	r7, r1
     5ea:	8f 8d       	ldd	r24, Y+31	; 0x1f
     5ec:	98 a1       	ldd	r25, Y+32	; 0x20
     5ee:	08 96       	adiw	r24, 0x08	; 8
     5f0:	98 a3       	std	Y+32, r25	; 0x20
     5f2:	8f 8f       	std	Y+31, r24	; 0x1f
     5f4:	e9 81       	ldd	r30, Y+1	; 0x01
     5f6:	fa 81       	ldd	r31, Y+2	; 0x02
     5f8:	e0 17       	cp	r30, r16
     5fa:	f1 07       	cpc	r31, r17
     5fc:	0c f4       	brge	.+2      	; 0x600 <__LOCK_REGION_LENGTH__+0x200>
     5fe:	68 c0       	rjmp	.+208    	; 0x6d0 <__LOCK_REGION_LENGTH__+0x2d0>
     600:	42 01       	movw	r8, r4
     602:	ab 8c       	ldd	r10, Y+27	; 0x1b
     604:	bc 8c       	ldd	r11, Y+28	; 0x1c
     606:	a6 18       	sub	r10, r6
     608:	b7 08       	sbc	r11, r7
     60a:	c1 2c       	mov	r12, r1
     60c:	d1 2c       	mov	r13, r1
     60e:	e1 2c       	mov	r14, r1
     610:	f1 2c       	mov	r15, r1
     612:	f4 01       	movw	r30, r8
     614:	61 91       	ld	r22, Z+
     616:	71 91       	ld	r23, Z+
     618:	81 91       	ld	r24, Z+
     61a:	91 91       	ld	r25, Z+
     61c:	4f 01       	movw	r8, r30
     61e:	f6 01       	movw	r30, r12
     620:	ea 0d       	add	r30, r10
     622:	fb 1d       	adc	r31, r11
     624:	29 85       	ldd	r18, Y+9	; 0x09
     626:	3a 85       	ldd	r19, Y+10	; 0x0a
     628:	e2 0f       	add	r30, r18
     62a:	f3 1f       	adc	r31, r19
     62c:	20 81       	ld	r18, Z
     62e:	31 81       	ldd	r19, Z+1	; 0x01
     630:	42 81       	ldd	r20, Z+2	; 0x02
     632:	53 81       	ldd	r21, Z+3	; 0x03
     634:	0e 94 8e 07 	call	0xf1c	; 0xf1c <__mulsf3>
     638:	9b 01       	movw	r18, r22
     63a:	ac 01       	movw	r20, r24
     63c:	ef 8d       	ldd	r30, Y+31	; 0x1f
     63e:	f8 a1       	ldd	r31, Y+32	; 0x20
     640:	60 81       	ld	r22, Z
     642:	71 81       	ldd	r23, Z+1	; 0x01
     644:	82 81       	ldd	r24, Z+2	; 0x02
     646:	93 81       	ldd	r25, Z+3	; 0x03
     648:	0e 94 f9 05 	call	0xbf2	; 0xbf2 <__addsf3>
     64c:	ef 8d       	ldd	r30, Y+31	; 0x1f
     64e:	f8 a1       	ldd	r31, Y+32	; 0x20
     650:	60 83       	st	Z, r22
     652:	71 83       	std	Z+1, r23	; 0x01
     654:	82 83       	std	Z+2, r24	; 0x02
     656:	93 83       	std	Z+3, r25	; 0x03
     658:	ff ef       	ldi	r31, 0xFF	; 255
     65a:	ef 1a       	sub	r14, r31
     65c:	ff 0a       	sbc	r15, r31
     65e:	24 e0       	ldi	r18, 0x04	; 4
     660:	c2 1a       	sub	r12, r18
     662:	d1 08       	sbc	r13, r1
     664:	0e 15       	cp	r16, r14
     666:	1f 05       	cpc	r17, r15
     668:	a1 f6       	brne	.-88     	; 0x612 <__LOCK_REGION_LENGTH__+0x212>
     66a:	41 01       	movw	r8, r2
     66c:	80 1a       	sub	r8, r16
     66e:	91 0a       	sbc	r9, r17
     670:	a9 84       	ldd	r10, Y+9	; 0x09
     672:	ba 84       	ldd	r11, Y+10	; 0x0a
     674:	ed 8c       	ldd	r14, Y+29	; 0x1d
     676:	fe 8c       	ldd	r15, Y+30	; 0x1e
     678:	e6 0c       	add	r14, r6
     67a:	f7 1c       	adc	r15, r7
     67c:	e4 0c       	add	r14, r4
     67e:	f5 1c       	adc	r15, r5
     680:	c1 2c       	mov	r12, r1
     682:	d1 2c       	mov	r13, r1
     684:	c8 14       	cp	r12, r8
     686:	d9 04       	cpc	r13, r9
     688:	0c f0       	brlt	.+2      	; 0x68c <__LOCK_REGION_LENGTH__+0x28c>
     68a:	aa cf       	rjmp	.-172    	; 0x5e0 <__LOCK_REGION_LENGTH__+0x1e0>
     68c:	f5 01       	movw	r30, r10
     68e:	61 91       	ld	r22, Z+
     690:	71 91       	ld	r23, Z+
     692:	81 91       	ld	r24, Z+
     694:	91 91       	ld	r25, Z+
     696:	5f 01       	movw	r10, r30
     698:	f7 01       	movw	r30, r14
     69a:	21 91       	ld	r18, Z+
     69c:	31 91       	ld	r19, Z+
     69e:	41 91       	ld	r20, Z+
     6a0:	51 91       	ld	r21, Z+
     6a2:	7f 01       	movw	r14, r30
     6a4:	0e 94 8e 07 	call	0xf1c	; 0xf1c <__mulsf3>
     6a8:	9b 01       	movw	r18, r22
     6aa:	ac 01       	movw	r20, r24
     6ac:	ef 8d       	ldd	r30, Y+31	; 0x1f
     6ae:	f8 a1       	ldd	r31, Y+32	; 0x20
     6b0:	60 81       	ld	r22, Z
     6b2:	71 81       	ldd	r23, Z+1	; 0x01
     6b4:	82 81       	ldd	r24, Z+2	; 0x02
     6b6:	93 81       	ldd	r25, Z+3	; 0x03
     6b8:	0e 94 f9 05 	call	0xbf2	; 0xbf2 <__addsf3>
     6bc:	ef 8d       	ldd	r30, Y+31	; 0x1f
     6be:	f8 a1       	ldd	r31, Y+32	; 0x20
     6c0:	60 83       	st	Z, r22
     6c2:	71 83       	std	Z+1, r23	; 0x01
     6c4:	82 83       	std	Z+2, r24	; 0x02
     6c6:	93 83       	std	Z+3, r25	; 0x03
     6c8:	ff ef       	ldi	r31, 0xFF	; 255
     6ca:	cf 1a       	sub	r12, r31
     6cc:	df 0a       	sbc	r13, r31
     6ce:	da cf       	rjmp	.-76     	; 0x684 <__LOCK_REGION_LENGTH__+0x284>
     6d0:	e1 2c       	mov	r14, r1
     6d2:	f1 2c       	mov	r15, r1
     6d4:	00 e0       	ldi	r16, 0x00	; 0
     6d6:	10 e0       	ldi	r17, 0x00	; 0
     6d8:	f8 01       	movw	r30, r16
     6da:	31 96       	adiw	r30, 0x01	; 1
     6dc:	fa 87       	std	Y+10, r31	; 0x0a
     6de:	e9 87       	std	Y+9, r30	; 0x09
     6e0:	29 81       	ldd	r18, Y+1	; 0x01
     6e2:	3a 81       	ldd	r19, Y+2	; 0x02
     6e4:	02 17       	cp	r16, r18
     6e6:	13 07       	cpc	r17, r19
     6e8:	0c f0       	brlt	.+2      	; 0x6ec <__LOCK_REGION_LENGTH__+0x2ec>
     6ea:	78 c0       	rjmp	.+240    	; 0x7dc <__LOCK_REGION_LENGTH__+0x3dc>
     6ec:	c9 80       	ldd	r12, Y+1	; 0x01
     6ee:	da 80       	ldd	r13, Y+2	; 0x02
     6f0:	c0 1a       	sub	r12, r16
     6f2:	d1 0a       	sbc	r13, r17
     6f4:	52 01       	movw	r10, r4
     6f6:	2f 89       	ldd	r18, Y+23	; 0x17
     6f8:	38 8d       	ldd	r19, Y+24	; 0x18
     6fa:	2e 19       	sub	r18, r14
     6fc:	3f 09       	sbc	r19, r15
     6fe:	8b 85       	ldd	r24, Y+11	; 0x0b
     700:	9c 85       	ldd	r25, Y+12	; 0x0c
     702:	28 0f       	add	r18, r24
     704:	39 1f       	adc	r19, r25
     706:	3a 87       	std	Y+10, r19	; 0x0a
     708:	29 87       	std	Y+9, r18	; 0x09
     70a:	c2 14       	cp	r12, r2
     70c:	d3 04       	cpc	r13, r3
     70e:	24 f5       	brge	.+72     	; 0x758 <__LOCK_REGION_LENGTH__+0x358>
     710:	f5 01       	movw	r30, r10
     712:	61 91       	ld	r22, Z+
     714:	71 91       	ld	r23, Z+
     716:	81 91       	ld	r24, Z+
     718:	91 91       	ld	r25, Z+
     71a:	5f 01       	movw	r10, r30
     71c:	e9 85       	ldd	r30, Y+9	; 0x09
     71e:	fa 85       	ldd	r31, Y+10	; 0x0a
     720:	21 91       	ld	r18, Z+
     722:	31 91       	ld	r19, Z+
     724:	41 91       	ld	r20, Z+
     726:	51 91       	ld	r21, Z+
     728:	fa 87       	std	Y+10, r31	; 0x0a
     72a:	e9 87       	std	Y+9, r30	; 0x09
     72c:	0e 94 8e 07 	call	0xf1c	; 0xf1c <__mulsf3>
     730:	9b 01       	movw	r18, r22
     732:	ac 01       	movw	r20, r24
     734:	ef 81       	ldd	r30, Y+7	; 0x07
     736:	f8 85       	ldd	r31, Y+8	; 0x08
     738:	64 81       	ldd	r22, Z+4	; 0x04
     73a:	75 81       	ldd	r23, Z+5	; 0x05
     73c:	86 81       	ldd	r24, Z+6	; 0x06
     73e:	97 81       	ldd	r25, Z+7	; 0x07
     740:	0e 94 f9 05 	call	0xbf2	; 0xbf2 <__addsf3>
     744:	ef 81       	ldd	r30, Y+7	; 0x07
     746:	f8 85       	ldd	r31, Y+8	; 0x08
     748:	64 83       	std	Z+4, r22	; 0x04
     74a:	75 83       	std	Z+5, r23	; 0x05
     74c:	86 83       	std	Z+6, r24	; 0x06
     74e:	97 83       	std	Z+7, r25	; 0x07
     750:	ff ef       	ldi	r31, 0xFF	; 255
     752:	cf 1a       	sub	r12, r31
     754:	df 0a       	sbc	r13, r31
     756:	d9 cf       	rjmp	.-78     	; 0x70a <__LOCK_REGION_LENGTH__+0x30a>
     758:	c9 88       	ldd	r12, Y+17	; 0x11
     75a:	da 88       	ldd	r13, Y+18	; 0x12
     75c:	c0 0e       	add	r12, r16
     75e:	d1 1e       	adc	r13, r17
     760:	2d 89       	ldd	r18, Y+21	; 0x15
     762:	3e 89       	ldd	r19, Y+22	; 0x16
     764:	2e 0d       	add	r18, r14
     766:	3f 1d       	adc	r19, r15
     768:	24 0d       	add	r18, r4
     76a:	35 1d       	adc	r19, r5
     76c:	3a 87       	std	Y+10, r19	; 0x0a
     76e:	29 87       	std	Y+9, r18	; 0x09
     770:	ab 84       	ldd	r10, Y+11	; 0x0b
     772:	bc 84       	ldd	r11, Y+12	; 0x0c
     774:	2d 85       	ldd	r18, Y+13	; 0x0d
     776:	3e 85       	ldd	r19, Y+14	; 0x0e
     778:	c2 16       	cp	r12, r18
     77a:	d3 06       	cpc	r13, r19
     77c:	24 f5       	brge	.+72     	; 0x7c6 <__LOCK_REGION_LENGTH__+0x3c6>
     77e:	e9 85       	ldd	r30, Y+9	; 0x09
     780:	fa 85       	ldd	r31, Y+10	; 0x0a
     782:	61 91       	ld	r22, Z+
     784:	71 91       	ld	r23, Z+
     786:	81 91       	ld	r24, Z+
     788:	91 91       	ld	r25, Z+
     78a:	fa 87       	std	Y+10, r31	; 0x0a
     78c:	e9 87       	std	Y+9, r30	; 0x09
     78e:	f5 01       	movw	r30, r10
     790:	21 91       	ld	r18, Z+
     792:	31 91       	ld	r19, Z+
     794:	41 91       	ld	r20, Z+
     796:	51 91       	ld	r21, Z+
     798:	5f 01       	movw	r10, r30
     79a:	0e 94 8e 07 	call	0xf1c	; 0xf1c <__mulsf3>
     79e:	9b 01       	movw	r18, r22
     7a0:	ac 01       	movw	r20, r24
     7a2:	ef 81       	ldd	r30, Y+7	; 0x07
     7a4:	f8 85       	ldd	r31, Y+8	; 0x08
     7a6:	64 81       	ldd	r22, Z+4	; 0x04
     7a8:	75 81       	ldd	r23, Z+5	; 0x05
     7aa:	86 81       	ldd	r24, Z+6	; 0x06
     7ac:	97 81       	ldd	r25, Z+7	; 0x07
     7ae:	0e 94 f9 05 	call	0xbf2	; 0xbf2 <__addsf3>
     7b2:	ef 81       	ldd	r30, Y+7	; 0x07
     7b4:	f8 85       	ldd	r31, Y+8	; 0x08
     7b6:	64 83       	std	Z+4, r22	; 0x04
     7b8:	75 83       	std	Z+5, r23	; 0x05
     7ba:	86 83       	std	Z+6, r24	; 0x06
     7bc:	97 83       	std	Z+7, r25	; 0x07
     7be:	ff ef       	ldi	r31, 0xFF	; 255
     7c0:	cf 1a       	sub	r12, r31
     7c2:	df 0a       	sbc	r13, r31
     7c4:	d7 cf       	rjmp	.-82     	; 0x774 <__LOCK_REGION_LENGTH__+0x374>
     7c6:	0e 5f       	subi	r16, 0xFE	; 254
     7c8:	1f 4f       	sbci	r17, 0xFF	; 255
     7ca:	38 e0       	ldi	r19, 0x08	; 8
     7cc:	e3 0e       	add	r14, r19
     7ce:	f1 1c       	adc	r15, r1
     7d0:	8f 81       	ldd	r24, Y+7	; 0x07
     7d2:	98 85       	ldd	r25, Y+8	; 0x08
     7d4:	08 96       	adiw	r24, 0x08	; 8
     7d6:	98 87       	std	Y+8, r25	; 0x08
     7d8:	8f 83       	std	Y+7, r24	; 0x07
     7da:	7e cf       	rjmp	.-260    	; 0x6d8 <__LOCK_REGION_LENGTH__+0x2d8>
     7dc:	8f 01       	movw	r16, r30
     7de:	00 0f       	add	r16, r16
     7e0:	11 1f       	adc	r17, r17
     7e2:	00 0f       	add	r16, r16
     7e4:	11 1f       	adc	r17, r17
     7e6:	8b 81       	ldd	r24, Y+3	; 0x03
     7e8:	9c 81       	ldd	r25, Y+4	; 0x04
     7ea:	08 0f       	add	r16, r24
     7ec:	19 1f       	adc	r17, r25
     7ee:	6b 88       	ldd	r6, Y+19	; 0x13
     7f0:	7c 88       	ldd	r7, Y+20	; 0x14
     7f2:	6e 0e       	add	r6, r30
     7f4:	7f 1e       	adc	r7, r31
     7f6:	66 0c       	add	r6, r6
     7f8:	77 1c       	adc	r7, r7
     7fa:	66 0c       	add	r6, r6
     7fc:	77 1c       	adc	r7, r7
     7fe:	a1 2c       	mov	r10, r1
     800:	b1 2c       	mov	r11, r1
     802:	89 85       	ldd	r24, Y+9	; 0x09
     804:	9a 85       	ldd	r25, Y+10	; 0x0a
     806:	e9 8d       	ldd	r30, Y+25	; 0x19
     808:	fa 8d       	ldd	r31, Y+26	; 0x1a
     80a:	e8 17       	cp	r30, r24
     80c:	f9 07       	cpc	r31, r25
     80e:	cc f4       	brge	.+50     	; 0x842 <__LOCK_REGION_LENGTH__+0x442>
     810:	88 0f       	add	r24, r24
     812:	99 1f       	adc	r25, r25
     814:	88 0f       	add	r24, r24
     816:	99 1f       	adc	r25, r25
     818:	2b 81       	ldd	r18, Y+3	; 0x03
     81a:	3c 81       	ldd	r19, Y+4	; 0x04
     81c:	82 0f       	add	r24, r18
     81e:	93 1f       	adc	r25, r19
     820:	9c 83       	std	Y+4, r25	; 0x04
     822:	8b 83       	std	Y+3, r24	; 0x03
     824:	e1 2c       	mov	r14, r1
     826:	f1 2c       	mov	r15, r1
     828:	01 e0       	ldi	r16, 0x01	; 1
     82a:	10 e0       	ldi	r17, 0x00	; 0
     82c:	8d 81       	ldd	r24, Y+5	; 0x05
     82e:	9e 81       	ldd	r25, Y+6	; 0x06
     830:	04 97       	sbiw	r24, 0x04	; 4
     832:	9e 83       	std	Y+6, r25	; 0x06
     834:	8d 83       	std	Y+5, r24	; 0x05
     836:	ef 85       	ldd	r30, Y+15	; 0x0f
     838:	f8 89       	ldd	r31, Y+16	; 0x10
     83a:	34 96       	adiw	r30, 0x04	; 4
     83c:	f8 8b       	std	Y+16, r31	; 0x10
     83e:	ef 87       	std	Y+15, r30	; 0x0f
     840:	42 c0       	rjmp	.+132    	; 0x8c6 <__LOCK_REGION_LENGTH__+0x4c6>
     842:	73 01       	movw	r14, r6
     844:	ea 0c       	add	r14, r10
     846:	fb 1c       	adc	r15, r11
     848:	e4 0c       	add	r14, r4
     84a:	f5 1c       	adc	r15, r5
     84c:	8b 84       	ldd	r8, Y+11	; 0x0b
     84e:	9c 84       	ldd	r9, Y+12	; 0x0c
     850:	c1 2c       	mov	r12, r1
     852:	d1 2c       	mov	r13, r1
     854:	c2 14       	cp	r12, r2
     856:	d3 04       	cpc	r13, r3
     858:	04 f5       	brge	.+64     	; 0x89a <__LOCK_REGION_LENGTH__+0x49a>
     85a:	f7 01       	movw	r30, r14
     85c:	61 91       	ld	r22, Z+
     85e:	71 91       	ld	r23, Z+
     860:	81 91       	ld	r24, Z+
     862:	91 91       	ld	r25, Z+
     864:	7f 01       	movw	r14, r30
     866:	f4 01       	movw	r30, r8
     868:	21 91       	ld	r18, Z+
     86a:	31 91       	ld	r19, Z+
     86c:	41 91       	ld	r20, Z+
     86e:	51 91       	ld	r21, Z+
     870:	4f 01       	movw	r8, r30
     872:	0e 94 8e 07 	call	0xf1c	; 0xf1c <__mulsf3>
     876:	9b 01       	movw	r18, r22
     878:	ac 01       	movw	r20, r24
     87a:	f8 01       	movw	r30, r16
     87c:	60 81       	ld	r22, Z
     87e:	71 81       	ldd	r23, Z+1	; 0x01
     880:	82 81       	ldd	r24, Z+2	; 0x02
     882:	93 81       	ldd	r25, Z+3	; 0x03
     884:	0e 94 f9 05 	call	0xbf2	; 0xbf2 <__addsf3>
     888:	f8 01       	movw	r30, r16
     88a:	60 83       	st	Z, r22
     88c:	71 83       	std	Z+1, r23	; 0x01
     88e:	82 83       	std	Z+2, r24	; 0x02
     890:	93 83       	std	Z+3, r25	; 0x03
     892:	ff ef       	ldi	r31, 0xFF	; 255
     894:	cf 1a       	sub	r12, r31
     896:	df 0a       	sbc	r13, r31
     898:	dd cf       	rjmp	.-70     	; 0x854 <__LOCK_REGION_LENGTH__+0x454>
     89a:	29 85       	ldd	r18, Y+9	; 0x09
     89c:	3a 85       	ldd	r19, Y+10	; 0x0a
     89e:	2e 5f       	subi	r18, 0xFE	; 254
     8a0:	3f 4f       	sbci	r19, 0xFF	; 255
     8a2:	3a 87       	std	Y+10, r19	; 0x0a
     8a4:	29 87       	std	Y+9, r18	; 0x09
     8a6:	38 e0       	ldi	r19, 0x08	; 8
     8a8:	a3 0e       	add	r10, r19
     8aa:	b1 1c       	adc	r11, r1
     8ac:	08 5f       	subi	r16, 0xF8	; 248
     8ae:	1f 4f       	sbci	r17, 0xFF	; 255
     8b0:	a8 cf       	rjmp	.-176    	; 0x802 <__LOCK_REGION_LENGTH__+0x402>
     8b2:	0e 5f       	subi	r16, 0xFE	; 254
     8b4:	1f 4f       	sbci	r17, 0xFF	; 255
     8b6:	28 e0       	ldi	r18, 0x08	; 8
     8b8:	e2 0e       	add	r14, r18
     8ba:	f1 1c       	adc	r15, r1
     8bc:	8b 81       	ldd	r24, Y+3	; 0x03
     8be:	9c 81       	ldd	r25, Y+4	; 0x04
     8c0:	08 96       	adiw	r24, 0x08	; 8
     8c2:	9c 83       	std	Y+4, r25	; 0x04
     8c4:	8b 83       	std	Y+3, r24	; 0x03
     8c6:	e9 81       	ldd	r30, Y+1	; 0x01
     8c8:	fa 81       	ldd	r31, Y+2	; 0x02
     8ca:	e0 17       	cp	r30, r16
     8cc:	f1 07       	cpc	r31, r17
     8ce:	0c f4       	brge	.+2      	; 0x8d2 <__LOCK_REGION_LENGTH__+0x4d2>
     8d0:	68 c0       	rjmp	.+208    	; 0x9a2 <__LOCK_REGION_LENGTH__+0x5a2>
     8d2:	42 01       	movw	r8, r4
     8d4:	6d 80       	ldd	r6, Y+5	; 0x05
     8d6:	7e 80       	ldd	r7, Y+6	; 0x06
     8d8:	6e 18       	sub	r6, r14
     8da:	7f 08       	sbc	r7, r15
     8dc:	a1 2c       	mov	r10, r1
     8de:	b1 2c       	mov	r11, r1
     8e0:	c1 2c       	mov	r12, r1
     8e2:	d1 2c       	mov	r13, r1
     8e4:	f4 01       	movw	r30, r8
     8e6:	61 91       	ld	r22, Z+
     8e8:	71 91       	ld	r23, Z+
     8ea:	81 91       	ld	r24, Z+
     8ec:	91 91       	ld	r25, Z+
     8ee:	4f 01       	movw	r8, r30
     8f0:	f5 01       	movw	r30, r10
     8f2:	e6 0d       	add	r30, r6
     8f4:	f7 1d       	adc	r31, r7
     8f6:	2b 85       	ldd	r18, Y+11	; 0x0b
     8f8:	3c 85       	ldd	r19, Y+12	; 0x0c
     8fa:	e2 0f       	add	r30, r18
     8fc:	f3 1f       	adc	r31, r19
     8fe:	20 81       	ld	r18, Z
     900:	31 81       	ldd	r19, Z+1	; 0x01
     902:	42 81       	ldd	r20, Z+2	; 0x02
     904:	53 81       	ldd	r21, Z+3	; 0x03
     906:	0e 94 8e 07 	call	0xf1c	; 0xf1c <__mulsf3>
     90a:	9b 01       	movw	r18, r22
     90c:	ac 01       	movw	r20, r24
     90e:	eb 81       	ldd	r30, Y+3	; 0x03
     910:	fc 81       	ldd	r31, Y+4	; 0x04
     912:	60 81       	ld	r22, Z
     914:	71 81       	ldd	r23, Z+1	; 0x01
     916:	82 81       	ldd	r24, Z+2	; 0x02
     918:	93 81       	ldd	r25, Z+3	; 0x03
     91a:	0e 94 f9 05 	call	0xbf2	; 0xbf2 <__addsf3>
     91e:	eb 81       	ldd	r30, Y+3	; 0x03
     920:	fc 81       	ldd	r31, Y+4	; 0x04
     922:	60 83       	st	Z, r22
     924:	71 83       	std	Z+1, r23	; 0x01
     926:	82 83       	std	Z+2, r24	; 0x02
     928:	93 83       	std	Z+3, r25	; 0x03
     92a:	ff ef       	ldi	r31, 0xFF	; 255
     92c:	cf 1a       	sub	r12, r31
     92e:	df 0a       	sbc	r13, r31
     930:	24 e0       	ldi	r18, 0x04	; 4
     932:	a2 1a       	sub	r10, r18
     934:	b1 08       	sbc	r11, r1
     936:	0c 15       	cp	r16, r12
     938:	1d 05       	cpc	r17, r13
     93a:	a1 f6       	brne	.-88     	; 0x8e4 <__LOCK_REGION_LENGTH__+0x4e4>
     93c:	31 01       	movw	r6, r2
     93e:	60 1a       	sub	r6, r16
     940:	71 0a       	sbc	r7, r17
     942:	8b 84       	ldd	r8, Y+11	; 0x0b
     944:	9c 84       	ldd	r9, Y+12	; 0x0c
     946:	cf 84       	ldd	r12, Y+15	; 0x0f
     948:	d8 88       	ldd	r13, Y+16	; 0x10
     94a:	ce 0c       	add	r12, r14
     94c:	df 1c       	adc	r13, r15
     94e:	c4 0c       	add	r12, r4
     950:	d5 1c       	adc	r13, r5
     952:	a1 2c       	mov	r10, r1
     954:	b1 2c       	mov	r11, r1
     956:	a6 14       	cp	r10, r6
     958:	b7 04       	cpc	r11, r7
     95a:	0c f0       	brlt	.+2      	; 0x95e <__LOCK_REGION_LENGTH__+0x55e>
     95c:	aa cf       	rjmp	.-172    	; 0x8b2 <__LOCK_REGION_LENGTH__+0x4b2>
     95e:	f4 01       	movw	r30, r8
     960:	61 91       	ld	r22, Z+
     962:	71 91       	ld	r23, Z+
     964:	81 91       	ld	r24, Z+
     966:	91 91       	ld	r25, Z+
     968:	4f 01       	movw	r8, r30
     96a:	f6 01       	movw	r30, r12
     96c:	21 91       	ld	r18, Z+
     96e:	31 91       	ld	r19, Z+
     970:	41 91       	ld	r20, Z+
     972:	51 91       	ld	r21, Z+
     974:	6f 01       	movw	r12, r30
     976:	0e 94 8e 07 	call	0xf1c	; 0xf1c <__mulsf3>
     97a:	9b 01       	movw	r18, r22
     97c:	ac 01       	movw	r20, r24
     97e:	eb 81       	ldd	r30, Y+3	; 0x03
     980:	fc 81       	ldd	r31, Y+4	; 0x04
     982:	60 81       	ld	r22, Z
     984:	71 81       	ldd	r23, Z+1	; 0x01
     986:	82 81       	ldd	r24, Z+2	; 0x02
     988:	93 81       	ldd	r25, Z+3	; 0x03
     98a:	0e 94 f9 05 	call	0xbf2	; 0xbf2 <__addsf3>
     98e:	eb 81       	ldd	r30, Y+3	; 0x03
     990:	fc 81       	ldd	r31, Y+4	; 0x04
     992:	60 83       	st	Z, r22
     994:	71 83       	std	Z+1, r23	; 0x01
     996:	82 83       	std	Z+2, r24	; 0x02
     998:	93 83       	std	Z+3, r25	; 0x03
     99a:	ff ef       	ldi	r31, 0xFF	; 255
     99c:	af 1a       	sub	r10, r31
     99e:	bf 0a       	sbc	r11, r31
     9a0:	da cf       	rjmp	.-76     	; 0x956 <__LOCK_REGION_LENGTH__+0x556>
     9a2:	a0 96       	adiw	r28, 0x20	; 32
     9a4:	0f b6       	in	r0, 0x3f	; 63
     9a6:	f8 94       	cli
     9a8:	de bf       	out	0x3e, r29	; 62
     9aa:	0f be       	out	0x3f, r0	; 63
     9ac:	cd bf       	out	0x3d, r28	; 61
     9ae:	df 91       	pop	r29
     9b0:	cf 91       	pop	r28
     9b2:	1f 91       	pop	r17
     9b4:	0f 91       	pop	r16
     9b6:	ff 90       	pop	r15
     9b8:	ef 90       	pop	r14
     9ba:	df 90       	pop	r13
     9bc:	cf 90       	pop	r12
     9be:	bf 90       	pop	r11
     9c0:	af 90       	pop	r10
     9c2:	9f 90       	pop	r9
     9c4:	8f 90       	pop	r8
     9c6:	7f 90       	pop	r7
     9c8:	6f 90       	pop	r6
     9ca:	5f 90       	pop	r5
     9cc:	4f 90       	pop	r4
     9ce:	3f 90       	pop	r3
     9d0:	2f 90       	pop	r2
     9d2:	08 95       	ret

000009d4 <Sort>:
     9d4:	cf 92       	push	r12
     9d6:	df 92       	push	r13
     9d8:	ef 92       	push	r14
     9da:	ff 92       	push	r15
     9dc:	cf 93       	push	r28
     9de:	df 93       	push	r29
     9e0:	ec 01       	movw	r28, r24
     9e2:	a0 e0       	ldi	r26, 0x00	; 0
     9e4:	b0 e0       	ldi	r27, 0x00	; 0
     9e6:	a4 17       	cp	r26, r20
     9e8:	b5 07       	cpc	r27, r21
     9ea:	cc f4       	brge	.+50     	; 0xa1e <Sort+0x4a>
     9ec:	c8 80       	ld	r12, Y
     9ee:	d9 80       	ldd	r13, Y+1	; 0x01
     9f0:	ea 80       	ldd	r14, Y+2	; 0x02
     9f2:	fb 80       	ldd	r15, Y+3	; 0x03
     9f4:	9d 01       	movw	r18, r26
     9f6:	b7 ff       	sbrs	r27, 7
     9f8:	02 c0       	rjmp	.+4      	; 0x9fe <Sort+0x2a>
     9fa:	2f 5f       	subi	r18, 0xFF	; 255
     9fc:	3f 4f       	sbci	r19, 0xFF	; 255
     9fe:	f9 01       	movw	r30, r18
     a00:	f5 95       	asr	r31
     a02:	e7 95       	ror	r30
     a04:	ee 0f       	add	r30, r30
     a06:	ff 1f       	adc	r31, r31
     a08:	ee 0f       	add	r30, r30
     a0a:	ff 1f       	adc	r31, r31
     a0c:	e6 0f       	add	r30, r22
     a0e:	f7 1f       	adc	r31, r23
     a10:	c0 82       	st	Z, r12
     a12:	d1 82       	std	Z+1, r13	; 0x01
     a14:	e2 82       	std	Z+2, r14	; 0x02
     a16:	f3 82       	std	Z+3, r15	; 0x03
     a18:	12 96       	adiw	r26, 0x02	; 2
     a1a:	28 96       	adiw	r28, 0x08	; 8
     a1c:	e4 cf       	rjmp	.-56     	; 0x9e6 <Sort+0x12>
     a1e:	9a 01       	movw	r18, r20
     a20:	57 ff       	sbrs	r21, 7
     a22:	02 c0       	rjmp	.+4      	; 0xa28 <Sort+0x54>
     a24:	2f 5f       	subi	r18, 0xFF	; 255
     a26:	3f 4f       	sbci	r19, 0xFF	; 255
     a28:	e9 01       	movw	r28, r18
     a2a:	d5 95       	asr	r29
     a2c:	c7 95       	ror	r28
     a2e:	a1 e0       	ldi	r26, 0x01	; 1
     a30:	b0 e0       	ldi	r27, 0x00	; 0
     a32:	a4 17       	cp	r26, r20
     a34:	b5 07       	cpc	r27, r21
     a36:	e4 f4       	brge	.+56     	; 0xa70 <Sort+0x9c>
     a38:	fc 01       	movw	r30, r24
     a3a:	c4 80       	ldd	r12, Z+4	; 0x04
     a3c:	d5 80       	ldd	r13, Z+5	; 0x05
     a3e:	e6 80       	ldd	r14, Z+6	; 0x06
     a40:	f7 80       	ldd	r15, Z+7	; 0x07
     a42:	9d 01       	movw	r18, r26
     a44:	b7 ff       	sbrs	r27, 7
     a46:	02 c0       	rjmp	.+4      	; 0xa4c <Sort+0x78>
     a48:	2f 5f       	subi	r18, 0xFF	; 255
     a4a:	3f 4f       	sbci	r19, 0xFF	; 255
     a4c:	f9 01       	movw	r30, r18
     a4e:	f5 95       	asr	r31
     a50:	e7 95       	ror	r30
     a52:	ec 0f       	add	r30, r28
     a54:	fd 1f       	adc	r31, r29
     a56:	ee 0f       	add	r30, r30
     a58:	ff 1f       	adc	r31, r31
     a5a:	ee 0f       	add	r30, r30
     a5c:	ff 1f       	adc	r31, r31
     a5e:	e6 0f       	add	r30, r22
     a60:	f7 1f       	adc	r31, r23
     a62:	c0 82       	st	Z, r12
     a64:	d1 82       	std	Z+1, r13	; 0x01
     a66:	e2 82       	std	Z+2, r14	; 0x02
     a68:	f3 82       	std	Z+3, r15	; 0x03
     a6a:	12 96       	adiw	r26, 0x02	; 2
     a6c:	08 96       	adiw	r24, 0x08	; 8
     a6e:	e1 cf       	rjmp	.-62     	; 0xa32 <Sort+0x5e>
     a70:	df 91       	pop	r29
     a72:	cf 91       	pop	r28
     a74:	ff 90       	pop	r15
     a76:	ef 90       	pop	r14
     a78:	df 90       	pop	r13
     a7a:	cf 90       	pop	r12
     a7c:	08 95       	ret

00000a7e <DWT1D>:
     a7e:	2f 92       	push	r2
     a80:	3f 92       	push	r3
     a82:	4f 92       	push	r4
     a84:	5f 92       	push	r5
     a86:	6f 92       	push	r6
     a88:	7f 92       	push	r7
     a8a:	8f 92       	push	r8
     a8c:	9f 92       	push	r9
     a8e:	af 92       	push	r10
     a90:	bf 92       	push	r11
     a92:	cf 92       	push	r12
     a94:	df 92       	push	r13
     a96:	ef 92       	push	r14
     a98:	ff 92       	push	r15
     a9a:	0f 93       	push	r16
     a9c:	1f 93       	push	r17
     a9e:	cf 93       	push	r28
     aa0:	df 93       	push	r29
     aa2:	cd b7       	in	r28, 0x3d	; 61
     aa4:	de b7       	in	r29, 0x3e	; 62
     aa6:	2c 97       	sbiw	r28, 0x0c	; 12
     aa8:	0f b6       	in	r0, 0x3f	; 63
     aaa:	f8 94       	cli
     aac:	de bf       	out	0x3e, r29	; 62
     aae:	0f be       	out	0x3f, r0	; 63
     ab0:	cd bf       	out	0x3d, r28	; 61
     ab2:	36 2e       	mov	r3, r22
     ab4:	27 2e       	mov	r2, r23
     ab6:	5c 83       	std	Y+4, r21	; 0x04
     ab8:	4b 83       	std	Y+3, r20	; 0x03
     aba:	3e 83       	std	Y+6, r19	; 0x06
     abc:	2d 83       	std	Y+5, r18	; 0x05
     abe:	18 87       	std	Y+8, r17	; 0x08
     ac0:	0f 83       	std	Y+7, r16	; 0x07
     ac2:	37 01       	movw	r6, r14
     ac4:	da 86       	std	Y+10, r13	; 0x0a
     ac6:	c9 86       	std	Y+9, r12	; 0x09
     ac8:	bc 86       	std	Y+12, r11	; 0x0c
     aca:	ab 86       	std	Y+11, r10	; 0x0b
     acc:	e6 2f       	mov	r30, r22
     ace:	f7 2f       	mov	r31, r23
     ad0:	20 e0       	ldi	r18, 0x00	; 0
     ad2:	30 e0       	ldi	r19, 0x00	; 0
     ad4:	26 15       	cp	r18, r6
     ad6:	37 05       	cpc	r19, r7
     ad8:	6c f4       	brge	.+26     	; 0xaf4 <DWT1D+0x76>
     ada:	dc 01       	movw	r26, r24
     adc:	4d 91       	ld	r20, X+
     ade:	5d 91       	ld	r21, X+
     ae0:	6d 91       	ld	r22, X+
     ae2:	7d 91       	ld	r23, X+
     ae4:	cd 01       	movw	r24, r26
     ae6:	41 93       	st	Z+, r20
     ae8:	51 93       	st	Z+, r21
     aea:	61 93       	st	Z+, r22
     aec:	71 93       	st	Z+, r23
     aee:	2f 5f       	subi	r18, 0xFF	; 255
     af0:	3f 4f       	sbci	r19, 0xFF	; 255
     af2:	f0 cf       	rjmp	.-32     	; 0xad4 <DWT1D+0x56>
     af4:	24 01       	movw	r4, r8
     af6:	c1 2c       	mov	r12, r1
     af8:	d1 2c       	mov	r13, r1
     afa:	ab 85       	ldd	r26, Y+11	; 0x0b
     afc:	bc 85       	ldd	r27, Y+12	; 0x0c
     afe:	ca 16       	cp	r12, r26
     b00:	db 06       	cpc	r13, r27
     b02:	0c f0       	brlt	.+2      	; 0xb06 <DWT1D+0x88>
     b04:	5c c0       	rjmp	.+184    	; 0xbbe <DWT1D+0x140>
     b06:	e9 84       	ldd	r14, Y+9	; 0x09
     b08:	fa 84       	ldd	r15, Y+10	; 0x0a
     b0a:	83 01       	movw	r16, r6
     b0c:	2b 81       	ldd	r18, Y+3	; 0x03
     b0e:	3c 81       	ldd	r19, Y+4	; 0x04
     b10:	4f 81       	ldd	r20, Y+7	; 0x07
     b12:	58 85       	ldd	r21, Y+8	; 0x08
     b14:	6d 81       	ldd	r22, Y+5	; 0x05
     b16:	7e 81       	ldd	r23, Y+6	; 0x06
     b18:	83 2d       	mov	r24, r3
     b1a:	92 2d       	mov	r25, r2
     b1c:	0e 94 93 01 	call	0x326	; 0x326 <Covlution>
     b20:	a3 01       	movw	r20, r6
     b22:	63 2d       	mov	r22, r3
     b24:	72 2d       	mov	r23, r2
     b26:	8b 81       	ldd	r24, Y+3	; 0x03
     b28:	9c 81       	ldd	r25, Y+4	; 0x04
     b2a:	0e 94 ea 04 	call	0x9d4	; 0x9d4 <Sort>
     b2e:	b6 01       	movw	r22, r12
     b30:	0d 2c       	mov	r0, r13
     b32:	00 0c       	add	r0, r0
     b34:	88 0b       	sbc	r24, r24
     b36:	99 0b       	sbc	r25, r25
     b38:	0e 94 de 06 	call	0xdbc	; 0xdbc <__floatsisf>
     b3c:	9b 01       	movw	r18, r22
     b3e:	ac 01       	movw	r20, r24
     b40:	60 e0       	ldi	r22, 0x00	; 0
     b42:	70 e0       	ldi	r23, 0x00	; 0
     b44:	80 e0       	ldi	r24, 0x00	; 0
     b46:	90 e4       	ldi	r25, 0x40	; 64
     b48:	0e 94 fb 07 	call	0xff6	; 0xff6 <pow>
     b4c:	9b 01       	movw	r18, r22
     b4e:	ac 01       	movw	r20, r24
     b50:	60 e0       	ldi	r22, 0x00	; 0
     b52:	70 e0       	ldi	r23, 0x00	; 0
     b54:	80 e8       	ldi	r24, 0x80	; 128
     b56:	92 e4       	ldi	r25, 0x42	; 66
     b58:	0e 94 6a 06 	call	0xcd4	; 0xcd4 <__divsf3>
     b5c:	4b 01       	movw	r8, r22
     b5e:	5c 01       	movw	r10, r24
     b60:	72 01       	movw	r14, r4
     b62:	39 82       	std	Y+1, r3	; 0x01
     b64:	2a 82       	std	Y+2, r2	; 0x02
     b66:	00 e0       	ldi	r16, 0x00	; 0
     b68:	10 e0       	ldi	r17, 0x00	; 0
     b6a:	b8 01       	movw	r22, r16
     b6c:	01 2e       	mov	r0, r17
     b6e:	00 0c       	add	r0, r0
     b70:	88 0b       	sbc	r24, r24
     b72:	99 0b       	sbc	r25, r25
     b74:	0e 94 de 06 	call	0xdbc	; 0xdbc <__floatsisf>
     b78:	a5 01       	movw	r20, r10
     b7a:	94 01       	movw	r18, r8
     b7c:	0e 94 65 06 	call	0xcca	; 0xcca <__cmpsf2>
     b80:	87 ff       	sbrs	r24, 7
     b82:	11 c0       	rjmp	.+34     	; 0xba6 <DWT1D+0x128>
     b84:	e9 81       	ldd	r30, Y+1	; 0x01
     b86:	fa 81       	ldd	r31, Y+2	; 0x02
     b88:	81 91       	ld	r24, Z+
     b8a:	91 91       	ld	r25, Z+
     b8c:	a1 91       	ld	r26, Z+
     b8e:	b1 91       	ld	r27, Z+
     b90:	fa 83       	std	Y+2, r31	; 0x02
     b92:	e9 83       	std	Y+1, r30	; 0x01
     b94:	f7 01       	movw	r30, r14
     b96:	81 93       	st	Z+, r24
     b98:	91 93       	st	Z+, r25
     b9a:	a1 93       	st	Z+, r26
     b9c:	b1 93       	st	Z+, r27
     b9e:	7f 01       	movw	r14, r30
     ba0:	0f 5f       	subi	r16, 0xFF	; 255
     ba2:	1f 4f       	sbci	r17, 0xFF	; 255
     ba4:	e2 cf       	rjmp	.-60     	; 0xb6a <DWT1D+0xec>
     ba6:	77 fe       	sbrs	r7, 7
     ba8:	03 c0       	rjmp	.+6      	; 0xbb0 <DWT1D+0x132>
     baa:	ff ef       	ldi	r31, 0xFF	; 255
     bac:	6f 1a       	sub	r6, r31
     bae:	7f 0a       	sbc	r7, r31
     bb0:	75 94       	asr	r7
     bb2:	67 94       	ror	r6
     bb4:	8f ef       	ldi	r24, 0xFF	; 255
     bb6:	c8 1a       	sub	r12, r24
     bb8:	d8 0a       	sbc	r13, r24
     bba:	53 94       	inc	r5
     bbc:	9e cf       	rjmp	.-196    	; 0xafa <DWT1D+0x7c>
     bbe:	2c 96       	adiw	r28, 0x0c	; 12
     bc0:	0f b6       	in	r0, 0x3f	; 63
     bc2:	f8 94       	cli
     bc4:	de bf       	out	0x3e, r29	; 62
     bc6:	0f be       	out	0x3f, r0	; 63
     bc8:	cd bf       	out	0x3d, r28	; 61
     bca:	df 91       	pop	r29
     bcc:	cf 91       	pop	r28
     bce:	1f 91       	pop	r17
     bd0:	0f 91       	pop	r16
     bd2:	ff 90       	pop	r15
     bd4:	ef 90       	pop	r14
     bd6:	df 90       	pop	r13
     bd8:	cf 90       	pop	r12
     bda:	bf 90       	pop	r11
     bdc:	af 90       	pop	r10
     bde:	9f 90       	pop	r9
     be0:	8f 90       	pop	r8
     be2:	7f 90       	pop	r7
     be4:	6f 90       	pop	r6
     be6:	5f 90       	pop	r5
     be8:	4f 90       	pop	r4
     bea:	3f 90       	pop	r3
     bec:	2f 90       	pop	r2
     bee:	08 95       	ret

00000bf0 <__subsf3>:
     bf0:	50 58       	subi	r21, 0x80	; 128

00000bf2 <__addsf3>:
     bf2:	bb 27       	eor	r27, r27
     bf4:	aa 27       	eor	r26, r26
     bf6:	0e 94 10 06 	call	0xc20	; 0xc20 <__addsf3x>
     bfa:	0c 94 54 07 	jmp	0xea8	; 0xea8 <__fp_round>
     bfe:	0e 94 46 07 	call	0xe8c	; 0xe8c <__fp_pscA>
     c02:	38 f0       	brcs	.+14     	; 0xc12 <__addsf3+0x20>
     c04:	0e 94 4d 07 	call	0xe9a	; 0xe9a <__fp_pscB>
     c08:	20 f0       	brcs	.+8      	; 0xc12 <__addsf3+0x20>
     c0a:	39 f4       	brne	.+14     	; 0xc1a <__addsf3+0x28>
     c0c:	9f 3f       	cpi	r25, 0xFF	; 255
     c0e:	19 f4       	brne	.+6      	; 0xc16 <__addsf3+0x24>
     c10:	26 f4       	brtc	.+8      	; 0xc1a <__addsf3+0x28>
     c12:	0c 94 43 07 	jmp	0xe86	; 0xe86 <__fp_nan>
     c16:	0e f4       	brtc	.+2      	; 0xc1a <__addsf3+0x28>
     c18:	e0 95       	com	r30
     c1a:	e7 fb       	bst	r30, 7
     c1c:	0c 94 3d 07 	jmp	0xe7a	; 0xe7a <__fp_inf>

00000c20 <__addsf3x>:
     c20:	e9 2f       	mov	r30, r25
     c22:	0e 94 65 07 	call	0xeca	; 0xeca <__fp_split3>
     c26:	58 f3       	brcs	.-42     	; 0xbfe <__addsf3+0xc>
     c28:	ba 17       	cp	r27, r26
     c2a:	62 07       	cpc	r22, r18
     c2c:	73 07       	cpc	r23, r19
     c2e:	84 07       	cpc	r24, r20
     c30:	95 07       	cpc	r25, r21
     c32:	20 f0       	brcs	.+8      	; 0xc3c <__addsf3x+0x1c>
     c34:	79 f4       	brne	.+30     	; 0xc54 <__addsf3x+0x34>
     c36:	a6 f5       	brtc	.+104    	; 0xca0 <__addsf3x+0x80>
     c38:	0c 94 87 07 	jmp	0xf0e	; 0xf0e <__fp_zero>
     c3c:	0e f4       	brtc	.+2      	; 0xc40 <__addsf3x+0x20>
     c3e:	e0 95       	com	r30
     c40:	0b 2e       	mov	r0, r27
     c42:	ba 2f       	mov	r27, r26
     c44:	a0 2d       	mov	r26, r0
     c46:	0b 01       	movw	r0, r22
     c48:	b9 01       	movw	r22, r18
     c4a:	90 01       	movw	r18, r0
     c4c:	0c 01       	movw	r0, r24
     c4e:	ca 01       	movw	r24, r20
     c50:	a0 01       	movw	r20, r0
     c52:	11 24       	eor	r1, r1
     c54:	ff 27       	eor	r31, r31
     c56:	59 1b       	sub	r21, r25
     c58:	99 f0       	breq	.+38     	; 0xc80 <__addsf3x+0x60>
     c5a:	59 3f       	cpi	r21, 0xF9	; 249
     c5c:	50 f4       	brcc	.+20     	; 0xc72 <__addsf3x+0x52>
     c5e:	50 3e       	cpi	r21, 0xE0	; 224
     c60:	68 f1       	brcs	.+90     	; 0xcbc <__addsf3x+0x9c>
     c62:	1a 16       	cp	r1, r26
     c64:	f0 40       	sbci	r31, 0x00	; 0
     c66:	a2 2f       	mov	r26, r18
     c68:	23 2f       	mov	r18, r19
     c6a:	34 2f       	mov	r19, r20
     c6c:	44 27       	eor	r20, r20
     c6e:	58 5f       	subi	r21, 0xF8	; 248
     c70:	f3 cf       	rjmp	.-26     	; 0xc58 <__addsf3x+0x38>
     c72:	46 95       	lsr	r20
     c74:	37 95       	ror	r19
     c76:	27 95       	ror	r18
     c78:	a7 95       	ror	r26
     c7a:	f0 40       	sbci	r31, 0x00	; 0
     c7c:	53 95       	inc	r21
     c7e:	c9 f7       	brne	.-14     	; 0xc72 <__addsf3x+0x52>
     c80:	7e f4       	brtc	.+30     	; 0xca0 <__addsf3x+0x80>
     c82:	1f 16       	cp	r1, r31
     c84:	ba 0b       	sbc	r27, r26
     c86:	62 0b       	sbc	r22, r18
     c88:	73 0b       	sbc	r23, r19
     c8a:	84 0b       	sbc	r24, r20
     c8c:	ba f0       	brmi	.+46     	; 0xcbc <__addsf3x+0x9c>
     c8e:	91 50       	subi	r25, 0x01	; 1
     c90:	a1 f0       	breq	.+40     	; 0xcba <__addsf3x+0x9a>
     c92:	ff 0f       	add	r31, r31
     c94:	bb 1f       	adc	r27, r27
     c96:	66 1f       	adc	r22, r22
     c98:	77 1f       	adc	r23, r23
     c9a:	88 1f       	adc	r24, r24
     c9c:	c2 f7       	brpl	.-16     	; 0xc8e <__addsf3x+0x6e>
     c9e:	0e c0       	rjmp	.+28     	; 0xcbc <__addsf3x+0x9c>
     ca0:	ba 0f       	add	r27, r26
     ca2:	62 1f       	adc	r22, r18
     ca4:	73 1f       	adc	r23, r19
     ca6:	84 1f       	adc	r24, r20
     ca8:	48 f4       	brcc	.+18     	; 0xcbc <__addsf3x+0x9c>
     caa:	87 95       	ror	r24
     cac:	77 95       	ror	r23
     cae:	67 95       	ror	r22
     cb0:	b7 95       	ror	r27
     cb2:	f7 95       	ror	r31
     cb4:	9e 3f       	cpi	r25, 0xFE	; 254
     cb6:	08 f0       	brcs	.+2      	; 0xcba <__addsf3x+0x9a>
     cb8:	b0 cf       	rjmp	.-160    	; 0xc1a <__addsf3+0x28>
     cba:	93 95       	inc	r25
     cbc:	88 0f       	add	r24, r24
     cbe:	08 f0       	brcs	.+2      	; 0xcc2 <__addsf3x+0xa2>
     cc0:	99 27       	eor	r25, r25
     cc2:	ee 0f       	add	r30, r30
     cc4:	97 95       	ror	r25
     cc6:	87 95       	ror	r24
     cc8:	08 95       	ret

00000cca <__cmpsf2>:
     cca:	0e 94 19 07 	call	0xe32	; 0xe32 <__fp_cmp>
     cce:	08 f4       	brcc	.+2      	; 0xcd2 <__cmpsf2+0x8>
     cd0:	81 e0       	ldi	r24, 0x01	; 1
     cd2:	08 95       	ret

00000cd4 <__divsf3>:
     cd4:	0e 94 7e 06 	call	0xcfc	; 0xcfc <__divsf3x>
     cd8:	0c 94 54 07 	jmp	0xea8	; 0xea8 <__fp_round>
     cdc:	0e 94 4d 07 	call	0xe9a	; 0xe9a <__fp_pscB>
     ce0:	58 f0       	brcs	.+22     	; 0xcf8 <__divsf3+0x24>
     ce2:	0e 94 46 07 	call	0xe8c	; 0xe8c <__fp_pscA>
     ce6:	40 f0       	brcs	.+16     	; 0xcf8 <__divsf3+0x24>
     ce8:	29 f4       	brne	.+10     	; 0xcf4 <__divsf3+0x20>
     cea:	5f 3f       	cpi	r21, 0xFF	; 255
     cec:	29 f0       	breq	.+10     	; 0xcf8 <__divsf3+0x24>
     cee:	0c 94 3d 07 	jmp	0xe7a	; 0xe7a <__fp_inf>
     cf2:	51 11       	cpse	r21, r1
     cf4:	0c 94 88 07 	jmp	0xf10	; 0xf10 <__fp_szero>
     cf8:	0c 94 43 07 	jmp	0xe86	; 0xe86 <__fp_nan>

00000cfc <__divsf3x>:
     cfc:	0e 94 65 07 	call	0xeca	; 0xeca <__fp_split3>
     d00:	68 f3       	brcs	.-38     	; 0xcdc <__divsf3+0x8>

00000d02 <__divsf3_pse>:
     d02:	99 23       	and	r25, r25
     d04:	b1 f3       	breq	.-20     	; 0xcf2 <__divsf3+0x1e>
     d06:	55 23       	and	r21, r21
     d08:	91 f3       	breq	.-28     	; 0xcee <__divsf3+0x1a>
     d0a:	95 1b       	sub	r25, r21
     d0c:	55 0b       	sbc	r21, r21
     d0e:	bb 27       	eor	r27, r27
     d10:	aa 27       	eor	r26, r26
     d12:	62 17       	cp	r22, r18
     d14:	73 07       	cpc	r23, r19
     d16:	84 07       	cpc	r24, r20
     d18:	38 f0       	brcs	.+14     	; 0xd28 <__divsf3_pse+0x26>
     d1a:	9f 5f       	subi	r25, 0xFF	; 255
     d1c:	5f 4f       	sbci	r21, 0xFF	; 255
     d1e:	22 0f       	add	r18, r18
     d20:	33 1f       	adc	r19, r19
     d22:	44 1f       	adc	r20, r20
     d24:	aa 1f       	adc	r26, r26
     d26:	a9 f3       	breq	.-22     	; 0xd12 <__divsf3_pse+0x10>
     d28:	35 d0       	rcall	.+106    	; 0xd94 <__divsf3_pse+0x92>
     d2a:	0e 2e       	mov	r0, r30
     d2c:	3a f0       	brmi	.+14     	; 0xd3c <__divsf3_pse+0x3a>
     d2e:	e0 e8       	ldi	r30, 0x80	; 128
     d30:	32 d0       	rcall	.+100    	; 0xd96 <__divsf3_pse+0x94>
     d32:	91 50       	subi	r25, 0x01	; 1
     d34:	50 40       	sbci	r21, 0x00	; 0
     d36:	e6 95       	lsr	r30
     d38:	00 1c       	adc	r0, r0
     d3a:	ca f7       	brpl	.-14     	; 0xd2e <__divsf3_pse+0x2c>
     d3c:	2b d0       	rcall	.+86     	; 0xd94 <__divsf3_pse+0x92>
     d3e:	fe 2f       	mov	r31, r30
     d40:	29 d0       	rcall	.+82     	; 0xd94 <__divsf3_pse+0x92>
     d42:	66 0f       	add	r22, r22
     d44:	77 1f       	adc	r23, r23
     d46:	88 1f       	adc	r24, r24
     d48:	bb 1f       	adc	r27, r27
     d4a:	26 17       	cp	r18, r22
     d4c:	37 07       	cpc	r19, r23
     d4e:	48 07       	cpc	r20, r24
     d50:	ab 07       	cpc	r26, r27
     d52:	b0 e8       	ldi	r27, 0x80	; 128
     d54:	09 f0       	breq	.+2      	; 0xd58 <__divsf3_pse+0x56>
     d56:	bb 0b       	sbc	r27, r27
     d58:	80 2d       	mov	r24, r0
     d5a:	bf 01       	movw	r22, r30
     d5c:	ff 27       	eor	r31, r31
     d5e:	93 58       	subi	r25, 0x83	; 131
     d60:	5f 4f       	sbci	r21, 0xFF	; 255
     d62:	3a f0       	brmi	.+14     	; 0xd72 <__divsf3_pse+0x70>
     d64:	9e 3f       	cpi	r25, 0xFE	; 254
     d66:	51 05       	cpc	r21, r1
     d68:	78 f0       	brcs	.+30     	; 0xd88 <__divsf3_pse+0x86>
     d6a:	0c 94 3d 07 	jmp	0xe7a	; 0xe7a <__fp_inf>
     d6e:	0c 94 88 07 	jmp	0xf10	; 0xf10 <__fp_szero>
     d72:	5f 3f       	cpi	r21, 0xFF	; 255
     d74:	e4 f3       	brlt	.-8      	; 0xd6e <__divsf3_pse+0x6c>
     d76:	98 3e       	cpi	r25, 0xE8	; 232
     d78:	d4 f3       	brlt	.-12     	; 0xd6e <__divsf3_pse+0x6c>
     d7a:	86 95       	lsr	r24
     d7c:	77 95       	ror	r23
     d7e:	67 95       	ror	r22
     d80:	b7 95       	ror	r27
     d82:	f7 95       	ror	r31
     d84:	9f 5f       	subi	r25, 0xFF	; 255
     d86:	c9 f7       	brne	.-14     	; 0xd7a <__divsf3_pse+0x78>
     d88:	88 0f       	add	r24, r24
     d8a:	91 1d       	adc	r25, r1
     d8c:	96 95       	lsr	r25
     d8e:	87 95       	ror	r24
     d90:	97 f9       	bld	r25, 7
     d92:	08 95       	ret
     d94:	e1 e0       	ldi	r30, 0x01	; 1
     d96:	66 0f       	add	r22, r22
     d98:	77 1f       	adc	r23, r23
     d9a:	88 1f       	adc	r24, r24
     d9c:	bb 1f       	adc	r27, r27
     d9e:	62 17       	cp	r22, r18
     da0:	73 07       	cpc	r23, r19
     da2:	84 07       	cpc	r24, r20
     da4:	ba 07       	cpc	r27, r26
     da6:	20 f0       	brcs	.+8      	; 0xdb0 <__divsf3_pse+0xae>
     da8:	62 1b       	sub	r22, r18
     daa:	73 0b       	sbc	r23, r19
     dac:	84 0b       	sbc	r24, r20
     dae:	ba 0b       	sbc	r27, r26
     db0:	ee 1f       	adc	r30, r30
     db2:	88 f7       	brcc	.-30     	; 0xd96 <__divsf3_pse+0x94>
     db4:	e0 95       	com	r30
     db6:	08 95       	ret

00000db8 <__floatunsisf>:
     db8:	e8 94       	clt
     dba:	09 c0       	rjmp	.+18     	; 0xdce <__floatsisf+0x12>

00000dbc <__floatsisf>:
     dbc:	97 fb       	bst	r25, 7
     dbe:	3e f4       	brtc	.+14     	; 0xdce <__floatsisf+0x12>
     dc0:	90 95       	com	r25
     dc2:	80 95       	com	r24
     dc4:	70 95       	com	r23
     dc6:	61 95       	neg	r22
     dc8:	7f 4f       	sbci	r23, 0xFF	; 255
     dca:	8f 4f       	sbci	r24, 0xFF	; 255
     dcc:	9f 4f       	sbci	r25, 0xFF	; 255
     dce:	99 23       	and	r25, r25
     dd0:	a9 f0       	breq	.+42     	; 0xdfc <__floatsisf+0x40>
     dd2:	f9 2f       	mov	r31, r25
     dd4:	96 e9       	ldi	r25, 0x96	; 150
     dd6:	bb 27       	eor	r27, r27
     dd8:	93 95       	inc	r25
     dda:	f6 95       	lsr	r31
     ddc:	87 95       	ror	r24
     dde:	77 95       	ror	r23
     de0:	67 95       	ror	r22
     de2:	b7 95       	ror	r27
     de4:	f1 11       	cpse	r31, r1
     de6:	f8 cf       	rjmp	.-16     	; 0xdd8 <__floatsisf+0x1c>
     de8:	fa f4       	brpl	.+62     	; 0xe28 <__floatsisf+0x6c>
     dea:	bb 0f       	add	r27, r27
     dec:	11 f4       	brne	.+4      	; 0xdf2 <__floatsisf+0x36>
     dee:	60 ff       	sbrs	r22, 0
     df0:	1b c0       	rjmp	.+54     	; 0xe28 <__floatsisf+0x6c>
     df2:	6f 5f       	subi	r22, 0xFF	; 255
     df4:	7f 4f       	sbci	r23, 0xFF	; 255
     df6:	8f 4f       	sbci	r24, 0xFF	; 255
     df8:	9f 4f       	sbci	r25, 0xFF	; 255
     dfa:	16 c0       	rjmp	.+44     	; 0xe28 <__floatsisf+0x6c>
     dfc:	88 23       	and	r24, r24
     dfe:	11 f0       	breq	.+4      	; 0xe04 <__floatsisf+0x48>
     e00:	96 e9       	ldi	r25, 0x96	; 150
     e02:	11 c0       	rjmp	.+34     	; 0xe26 <__floatsisf+0x6a>
     e04:	77 23       	and	r23, r23
     e06:	21 f0       	breq	.+8      	; 0xe10 <__floatsisf+0x54>
     e08:	9e e8       	ldi	r25, 0x8E	; 142
     e0a:	87 2f       	mov	r24, r23
     e0c:	76 2f       	mov	r23, r22
     e0e:	05 c0       	rjmp	.+10     	; 0xe1a <__floatsisf+0x5e>
     e10:	66 23       	and	r22, r22
     e12:	71 f0       	breq	.+28     	; 0xe30 <__floatsisf+0x74>
     e14:	96 e8       	ldi	r25, 0x86	; 134
     e16:	86 2f       	mov	r24, r22
     e18:	70 e0       	ldi	r23, 0x00	; 0
     e1a:	60 e0       	ldi	r22, 0x00	; 0
     e1c:	2a f0       	brmi	.+10     	; 0xe28 <__floatsisf+0x6c>
     e1e:	9a 95       	dec	r25
     e20:	66 0f       	add	r22, r22
     e22:	77 1f       	adc	r23, r23
     e24:	88 1f       	adc	r24, r24
     e26:	da f7       	brpl	.-10     	; 0xe1e <__floatsisf+0x62>
     e28:	88 0f       	add	r24, r24
     e2a:	96 95       	lsr	r25
     e2c:	87 95       	ror	r24
     e2e:	97 f9       	bld	r25, 7
     e30:	08 95       	ret

00000e32 <__fp_cmp>:
     e32:	99 0f       	add	r25, r25
     e34:	00 08       	sbc	r0, r0
     e36:	55 0f       	add	r21, r21
     e38:	aa 0b       	sbc	r26, r26
     e3a:	e0 e8       	ldi	r30, 0x80	; 128
     e3c:	fe ef       	ldi	r31, 0xFE	; 254
     e3e:	16 16       	cp	r1, r22
     e40:	17 06       	cpc	r1, r23
     e42:	e8 07       	cpc	r30, r24
     e44:	f9 07       	cpc	r31, r25
     e46:	c0 f0       	brcs	.+48     	; 0xe78 <__fp_cmp+0x46>
     e48:	12 16       	cp	r1, r18
     e4a:	13 06       	cpc	r1, r19
     e4c:	e4 07       	cpc	r30, r20
     e4e:	f5 07       	cpc	r31, r21
     e50:	98 f0       	brcs	.+38     	; 0xe78 <__fp_cmp+0x46>
     e52:	62 1b       	sub	r22, r18
     e54:	73 0b       	sbc	r23, r19
     e56:	84 0b       	sbc	r24, r20
     e58:	95 0b       	sbc	r25, r21
     e5a:	39 f4       	brne	.+14     	; 0xe6a <__fp_cmp+0x38>
     e5c:	0a 26       	eor	r0, r26
     e5e:	61 f0       	breq	.+24     	; 0xe78 <__fp_cmp+0x46>
     e60:	23 2b       	or	r18, r19
     e62:	24 2b       	or	r18, r20
     e64:	25 2b       	or	r18, r21
     e66:	21 f4       	brne	.+8      	; 0xe70 <__fp_cmp+0x3e>
     e68:	08 95       	ret
     e6a:	0a 26       	eor	r0, r26
     e6c:	09 f4       	brne	.+2      	; 0xe70 <__fp_cmp+0x3e>
     e6e:	a1 40       	sbci	r26, 0x01	; 1
     e70:	a6 95       	lsr	r26
     e72:	8f ef       	ldi	r24, 0xFF	; 255
     e74:	81 1d       	adc	r24, r1
     e76:	81 1d       	adc	r24, r1
     e78:	08 95       	ret

00000e7a <__fp_inf>:
     e7a:	97 f9       	bld	r25, 7
     e7c:	9f 67       	ori	r25, 0x7F	; 127
     e7e:	80 e8       	ldi	r24, 0x80	; 128
     e80:	70 e0       	ldi	r23, 0x00	; 0
     e82:	60 e0       	ldi	r22, 0x00	; 0
     e84:	08 95       	ret

00000e86 <__fp_nan>:
     e86:	9f ef       	ldi	r25, 0xFF	; 255
     e88:	80 ec       	ldi	r24, 0xC0	; 192
     e8a:	08 95       	ret

00000e8c <__fp_pscA>:
     e8c:	00 24       	eor	r0, r0
     e8e:	0a 94       	dec	r0
     e90:	16 16       	cp	r1, r22
     e92:	17 06       	cpc	r1, r23
     e94:	18 06       	cpc	r1, r24
     e96:	09 06       	cpc	r0, r25
     e98:	08 95       	ret

00000e9a <__fp_pscB>:
     e9a:	00 24       	eor	r0, r0
     e9c:	0a 94       	dec	r0
     e9e:	12 16       	cp	r1, r18
     ea0:	13 06       	cpc	r1, r19
     ea2:	14 06       	cpc	r1, r20
     ea4:	05 06       	cpc	r0, r21
     ea6:	08 95       	ret

00000ea8 <__fp_round>:
     ea8:	09 2e       	mov	r0, r25
     eaa:	03 94       	inc	r0
     eac:	00 0c       	add	r0, r0
     eae:	11 f4       	brne	.+4      	; 0xeb4 <__fp_round+0xc>
     eb0:	88 23       	and	r24, r24
     eb2:	52 f0       	brmi	.+20     	; 0xec8 <__fp_round+0x20>
     eb4:	bb 0f       	add	r27, r27
     eb6:	40 f4       	brcc	.+16     	; 0xec8 <__fp_round+0x20>
     eb8:	bf 2b       	or	r27, r31
     eba:	11 f4       	brne	.+4      	; 0xec0 <__fp_round+0x18>
     ebc:	60 ff       	sbrs	r22, 0
     ebe:	04 c0       	rjmp	.+8      	; 0xec8 <__fp_round+0x20>
     ec0:	6f 5f       	subi	r22, 0xFF	; 255
     ec2:	7f 4f       	sbci	r23, 0xFF	; 255
     ec4:	8f 4f       	sbci	r24, 0xFF	; 255
     ec6:	9f 4f       	sbci	r25, 0xFF	; 255
     ec8:	08 95       	ret

00000eca <__fp_split3>:
     eca:	57 fd       	sbrc	r21, 7
     ecc:	90 58       	subi	r25, 0x80	; 128
     ece:	44 0f       	add	r20, r20
     ed0:	55 1f       	adc	r21, r21
     ed2:	59 f0       	breq	.+22     	; 0xeea <__fp_splitA+0x10>
     ed4:	5f 3f       	cpi	r21, 0xFF	; 255
     ed6:	71 f0       	breq	.+28     	; 0xef4 <__fp_splitA+0x1a>
     ed8:	47 95       	ror	r20

00000eda <__fp_splitA>:
     eda:	88 0f       	add	r24, r24
     edc:	97 fb       	bst	r25, 7
     ede:	99 1f       	adc	r25, r25
     ee0:	61 f0       	breq	.+24     	; 0xefa <__fp_splitA+0x20>
     ee2:	9f 3f       	cpi	r25, 0xFF	; 255
     ee4:	79 f0       	breq	.+30     	; 0xf04 <__fp_splitA+0x2a>
     ee6:	87 95       	ror	r24
     ee8:	08 95       	ret
     eea:	12 16       	cp	r1, r18
     eec:	13 06       	cpc	r1, r19
     eee:	14 06       	cpc	r1, r20
     ef0:	55 1f       	adc	r21, r21
     ef2:	f2 cf       	rjmp	.-28     	; 0xed8 <__fp_split3+0xe>
     ef4:	46 95       	lsr	r20
     ef6:	f1 df       	rcall	.-30     	; 0xeda <__fp_splitA>
     ef8:	08 c0       	rjmp	.+16     	; 0xf0a <__fp_splitA+0x30>
     efa:	16 16       	cp	r1, r22
     efc:	17 06       	cpc	r1, r23
     efe:	18 06       	cpc	r1, r24
     f00:	99 1f       	adc	r25, r25
     f02:	f1 cf       	rjmp	.-30     	; 0xee6 <__fp_splitA+0xc>
     f04:	86 95       	lsr	r24
     f06:	71 05       	cpc	r23, r1
     f08:	61 05       	cpc	r22, r1
     f0a:	08 94       	sec
     f0c:	08 95       	ret

00000f0e <__fp_zero>:
     f0e:	e8 94       	clt

00000f10 <__fp_szero>:
     f10:	bb 27       	eor	r27, r27
     f12:	66 27       	eor	r22, r22
     f14:	77 27       	eor	r23, r23
     f16:	cb 01       	movw	r24, r22
     f18:	97 f9       	bld	r25, 7
     f1a:	08 95       	ret

00000f1c <__mulsf3>:
     f1c:	0e 94 a1 07 	call	0xf42	; 0xf42 <__mulsf3x>
     f20:	0c 94 54 07 	jmp	0xea8	; 0xea8 <__fp_round>
     f24:	0e 94 46 07 	call	0xe8c	; 0xe8c <__fp_pscA>
     f28:	38 f0       	brcs	.+14     	; 0xf38 <__mulsf3+0x1c>
     f2a:	0e 94 4d 07 	call	0xe9a	; 0xe9a <__fp_pscB>
     f2e:	20 f0       	brcs	.+8      	; 0xf38 <__mulsf3+0x1c>
     f30:	95 23       	and	r25, r21
     f32:	11 f0       	breq	.+4      	; 0xf38 <__mulsf3+0x1c>
     f34:	0c 94 3d 07 	jmp	0xe7a	; 0xe7a <__fp_inf>
     f38:	0c 94 43 07 	jmp	0xe86	; 0xe86 <__fp_nan>
     f3c:	11 24       	eor	r1, r1
     f3e:	0c 94 88 07 	jmp	0xf10	; 0xf10 <__fp_szero>

00000f42 <__mulsf3x>:
     f42:	0e 94 65 07 	call	0xeca	; 0xeca <__fp_split3>
     f46:	70 f3       	brcs	.-36     	; 0xf24 <__mulsf3+0x8>

00000f48 <__mulsf3_pse>:
     f48:	95 9f       	mul	r25, r21
     f4a:	c1 f3       	breq	.-16     	; 0xf3c <__mulsf3+0x20>
     f4c:	95 0f       	add	r25, r21
     f4e:	50 e0       	ldi	r21, 0x00	; 0
     f50:	55 1f       	adc	r21, r21
     f52:	62 9f       	mul	r22, r18
     f54:	f0 01       	movw	r30, r0
     f56:	72 9f       	mul	r23, r18
     f58:	bb 27       	eor	r27, r27
     f5a:	f0 0d       	add	r31, r0
     f5c:	b1 1d       	adc	r27, r1
     f5e:	63 9f       	mul	r22, r19
     f60:	aa 27       	eor	r26, r26
     f62:	f0 0d       	add	r31, r0
     f64:	b1 1d       	adc	r27, r1
     f66:	aa 1f       	adc	r26, r26
     f68:	64 9f       	mul	r22, r20
     f6a:	66 27       	eor	r22, r22
     f6c:	b0 0d       	add	r27, r0
     f6e:	a1 1d       	adc	r26, r1
     f70:	66 1f       	adc	r22, r22
     f72:	82 9f       	mul	r24, r18
     f74:	22 27       	eor	r18, r18
     f76:	b0 0d       	add	r27, r0
     f78:	a1 1d       	adc	r26, r1
     f7a:	62 1f       	adc	r22, r18
     f7c:	73 9f       	mul	r23, r19
     f7e:	b0 0d       	add	r27, r0
     f80:	a1 1d       	adc	r26, r1
     f82:	62 1f       	adc	r22, r18
     f84:	83 9f       	mul	r24, r19
     f86:	a0 0d       	add	r26, r0
     f88:	61 1d       	adc	r22, r1
     f8a:	22 1f       	adc	r18, r18
     f8c:	74 9f       	mul	r23, r20
     f8e:	33 27       	eor	r19, r19
     f90:	a0 0d       	add	r26, r0
     f92:	61 1d       	adc	r22, r1
     f94:	23 1f       	adc	r18, r19
     f96:	84 9f       	mul	r24, r20
     f98:	60 0d       	add	r22, r0
     f9a:	21 1d       	adc	r18, r1
     f9c:	82 2f       	mov	r24, r18
     f9e:	76 2f       	mov	r23, r22
     fa0:	6a 2f       	mov	r22, r26
     fa2:	11 24       	eor	r1, r1
     fa4:	9f 57       	subi	r25, 0x7F	; 127
     fa6:	50 40       	sbci	r21, 0x00	; 0
     fa8:	9a f0       	brmi	.+38     	; 0xfd0 <__mulsf3_pse+0x88>
     faa:	f1 f0       	breq	.+60     	; 0xfe8 <__mulsf3_pse+0xa0>
     fac:	88 23       	and	r24, r24
     fae:	4a f0       	brmi	.+18     	; 0xfc2 <__mulsf3_pse+0x7a>
     fb0:	ee 0f       	add	r30, r30
     fb2:	ff 1f       	adc	r31, r31
     fb4:	bb 1f       	adc	r27, r27
     fb6:	66 1f       	adc	r22, r22
     fb8:	77 1f       	adc	r23, r23
     fba:	88 1f       	adc	r24, r24
     fbc:	91 50       	subi	r25, 0x01	; 1
     fbe:	50 40       	sbci	r21, 0x00	; 0
     fc0:	a9 f7       	brne	.-22     	; 0xfac <__mulsf3_pse+0x64>
     fc2:	9e 3f       	cpi	r25, 0xFE	; 254
     fc4:	51 05       	cpc	r21, r1
     fc6:	80 f0       	brcs	.+32     	; 0xfe8 <__mulsf3_pse+0xa0>
     fc8:	0c 94 3d 07 	jmp	0xe7a	; 0xe7a <__fp_inf>
     fcc:	0c 94 88 07 	jmp	0xf10	; 0xf10 <__fp_szero>
     fd0:	5f 3f       	cpi	r21, 0xFF	; 255
     fd2:	e4 f3       	brlt	.-8      	; 0xfcc <__mulsf3_pse+0x84>
     fd4:	98 3e       	cpi	r25, 0xE8	; 232
     fd6:	d4 f3       	brlt	.-12     	; 0xfcc <__mulsf3_pse+0x84>
     fd8:	86 95       	lsr	r24
     fda:	77 95       	ror	r23
     fdc:	67 95       	ror	r22
     fde:	b7 95       	ror	r27
     fe0:	f7 95       	ror	r31
     fe2:	e7 95       	ror	r30
     fe4:	9f 5f       	subi	r25, 0xFF	; 255
     fe6:	c1 f7       	brne	.-16     	; 0xfd8 <__mulsf3_pse+0x90>
     fe8:	fe 2b       	or	r31, r30
     fea:	88 0f       	add	r24, r24
     fec:	91 1d       	adc	r25, r1
     fee:	96 95       	lsr	r25
     ff0:	87 95       	ror	r24
     ff2:	97 f9       	bld	r25, 7
     ff4:	08 95       	ret

00000ff6 <pow>:
     ff6:	fa 01       	movw	r30, r20
     ff8:	ee 0f       	add	r30, r30
     ffa:	ff 1f       	adc	r31, r31
     ffc:	30 96       	adiw	r30, 0x00	; 0
     ffe:	21 05       	cpc	r18, r1
    1000:	31 05       	cpc	r19, r1
    1002:	a1 f1       	breq	.+104    	; 0x106c <pow+0x76>
    1004:	61 15       	cp	r22, r1
    1006:	71 05       	cpc	r23, r1
    1008:	61 f4       	brne	.+24     	; 0x1022 <pow+0x2c>
    100a:	80 38       	cpi	r24, 0x80	; 128
    100c:	bf e3       	ldi	r27, 0x3F	; 63
    100e:	9b 07       	cpc	r25, r27
    1010:	49 f1       	breq	.+82     	; 0x1064 <pow+0x6e>
    1012:	68 94       	set
    1014:	90 38       	cpi	r25, 0x80	; 128
    1016:	81 05       	cpc	r24, r1
    1018:	61 f0       	breq	.+24     	; 0x1032 <pow+0x3c>
    101a:	80 38       	cpi	r24, 0x80	; 128
    101c:	bf ef       	ldi	r27, 0xFF	; 255
    101e:	9b 07       	cpc	r25, r27
    1020:	41 f0       	breq	.+16     	; 0x1032 <pow+0x3c>
    1022:	99 23       	and	r25, r25
    1024:	4a f5       	brpl	.+82     	; 0x1078 <pow+0x82>
    1026:	ff 3f       	cpi	r31, 0xFF	; 255
    1028:	e1 05       	cpc	r30, r1
    102a:	31 05       	cpc	r19, r1
    102c:	21 05       	cpc	r18, r1
    102e:	19 f1       	breq	.+70     	; 0x1076 <pow+0x80>
    1030:	e8 94       	clt
    1032:	08 94       	sec
    1034:	e7 95       	ror	r30
    1036:	d9 01       	movw	r26, r18
    1038:	aa 23       	and	r26, r26
    103a:	29 f4       	brne	.+10     	; 0x1046 <pow+0x50>
    103c:	ab 2f       	mov	r26, r27
    103e:	be 2f       	mov	r27, r30
    1040:	f8 5f       	subi	r31, 0xF8	; 248
    1042:	d0 f3       	brcs	.-12     	; 0x1038 <pow+0x42>
    1044:	10 c0       	rjmp	.+32     	; 0x1066 <pow+0x70>
    1046:	ff 5f       	subi	r31, 0xFF	; 255
    1048:	70 f4       	brcc	.+28     	; 0x1066 <pow+0x70>
    104a:	a6 95       	lsr	r26
    104c:	e0 f7       	brcc	.-8      	; 0x1046 <pow+0x50>
    104e:	f7 39       	cpi	r31, 0x97	; 151
    1050:	50 f0       	brcs	.+20     	; 0x1066 <pow+0x70>
    1052:	19 f0       	breq	.+6      	; 0x105a <pow+0x64>
    1054:	ff 3a       	cpi	r31, 0xAF	; 175
    1056:	38 f4       	brcc	.+14     	; 0x1066 <pow+0x70>
    1058:	9f 77       	andi	r25, 0x7F	; 127
    105a:	9f 93       	push	r25
    105c:	0d d0       	rcall	.+26     	; 0x1078 <pow+0x82>
    105e:	0f 90       	pop	r0
    1060:	07 fc       	sbrc	r0, 7
    1062:	90 58       	subi	r25, 0x80	; 128
    1064:	08 95       	ret
    1066:	46 f0       	brts	.+16     	; 0x1078 <pow+0x82>
    1068:	0c 94 43 07 	jmp	0xe86	; 0xe86 <__fp_nan>
    106c:	60 e0       	ldi	r22, 0x00	; 0
    106e:	70 e0       	ldi	r23, 0x00	; 0
    1070:	80 e8       	ldi	r24, 0x80	; 128
    1072:	9f e3       	ldi	r25, 0x3F	; 63
    1074:	08 95       	ret
    1076:	4f e7       	ldi	r20, 0x7F	; 127
    1078:	9f 77       	andi	r25, 0x7F	; 127
    107a:	5f 93       	push	r21
    107c:	4f 93       	push	r20
    107e:	3f 93       	push	r19
    1080:	2f 93       	push	r18
    1082:	0e 94 f6 08 	call	0x11ec	; 0x11ec <log>
    1086:	2f 91       	pop	r18
    1088:	3f 91       	pop	r19
    108a:	4f 91       	pop	r20
    108c:	5f 91       	pop	r21
    108e:	0e 94 8e 07 	call	0xf1c	; 0xf1c <__mulsf3>
    1092:	0c 94 53 08 	jmp	0x10a6	; 0x10a6 <exp>
    1096:	29 f4       	brne	.+10     	; 0x10a2 <pow+0xac>
    1098:	16 f0       	brts	.+4      	; 0x109e <pow+0xa8>
    109a:	0c 94 3d 07 	jmp	0xe7a	; 0xe7a <__fp_inf>
    109e:	0c 94 87 07 	jmp	0xf0e	; 0xf0e <__fp_zero>
    10a2:	0c 94 43 07 	jmp	0xe86	; 0xe86 <__fp_nan>

000010a6 <exp>:
    10a6:	0e 94 6d 07 	call	0xeda	; 0xeda <__fp_splitA>
    10aa:	a8 f3       	brcs	.-22     	; 0x1096 <pow+0xa0>
    10ac:	96 38       	cpi	r25, 0x86	; 134
    10ae:	a0 f7       	brcc	.-24     	; 0x1098 <pow+0xa2>
    10b0:	07 f8       	bld	r0, 7
    10b2:	0f 92       	push	r0
    10b4:	e8 94       	clt
    10b6:	2b e3       	ldi	r18, 0x3B	; 59
    10b8:	3a ea       	ldi	r19, 0xAA	; 170
    10ba:	48 eb       	ldi	r20, 0xB8	; 184
    10bc:	5f e7       	ldi	r21, 0x7F	; 127
    10be:	0e 94 a4 07 	call	0xf48	; 0xf48 <__mulsf3_pse>
    10c2:	0f 92       	push	r0
    10c4:	0f 92       	push	r0
    10c6:	0f 92       	push	r0
    10c8:	4d b7       	in	r20, 0x3d	; 61
    10ca:	5e b7       	in	r21, 0x3e	; 62
    10cc:	0f 92       	push	r0
    10ce:	0e 94 3e 09 	call	0x127c	; 0x127c <modf>
    10d2:	ec e8       	ldi	r30, 0x8C	; 140
    10d4:	f0 e0       	ldi	r31, 0x00	; 0
    10d6:	0e 94 85 08 	call	0x110a	; 0x110a <__fp_powser>
    10da:	4f 91       	pop	r20
    10dc:	5f 91       	pop	r21
    10de:	ef 91       	pop	r30
    10e0:	ff 91       	pop	r31
    10e2:	e5 95       	asr	r30
    10e4:	ee 1f       	adc	r30, r30
    10e6:	ff 1f       	adc	r31, r31
    10e8:	49 f0       	breq	.+18     	; 0x10fc <exp+0x56>
    10ea:	fe 57       	subi	r31, 0x7E	; 126
    10ec:	e0 68       	ori	r30, 0x80	; 128
    10ee:	44 27       	eor	r20, r20
    10f0:	ee 0f       	add	r30, r30
    10f2:	44 1f       	adc	r20, r20
    10f4:	fa 95       	dec	r31
    10f6:	e1 f7       	brne	.-8      	; 0x10f0 <exp+0x4a>
    10f8:	41 95       	neg	r20
    10fa:	55 0b       	sbc	r21, r21
    10fc:	0e 94 b8 08 	call	0x1170	; 0x1170 <ldexp>
    1100:	0f 90       	pop	r0
    1102:	07 fe       	sbrs	r0, 7
    1104:	0c 94 ac 08 	jmp	0x1158	; 0x1158 <inverse>
    1108:	08 95       	ret

0000110a <__fp_powser>:
    110a:	df 93       	push	r29
    110c:	cf 93       	push	r28
    110e:	1f 93       	push	r17
    1110:	0f 93       	push	r16
    1112:	ff 92       	push	r15
    1114:	ef 92       	push	r14
    1116:	df 92       	push	r13
    1118:	7b 01       	movw	r14, r22
    111a:	8c 01       	movw	r16, r24
    111c:	68 94       	set
    111e:	06 c0       	rjmp	.+12     	; 0x112c <__fp_powser+0x22>
    1120:	da 2e       	mov	r13, r26
    1122:	ef 01       	movw	r28, r30
    1124:	0e 94 a1 07 	call	0xf42	; 0xf42 <__mulsf3x>
    1128:	fe 01       	movw	r30, r28
    112a:	e8 94       	clt
    112c:	a5 91       	lpm	r26, Z+
    112e:	25 91       	lpm	r18, Z+
    1130:	35 91       	lpm	r19, Z+
    1132:	45 91       	lpm	r20, Z+
    1134:	55 91       	lpm	r21, Z+
    1136:	a6 f3       	brts	.-24     	; 0x1120 <__fp_powser+0x16>
    1138:	ef 01       	movw	r28, r30
    113a:	0e 94 10 06 	call	0xc20	; 0xc20 <__addsf3x>
    113e:	fe 01       	movw	r30, r28
    1140:	97 01       	movw	r18, r14
    1142:	a8 01       	movw	r20, r16
    1144:	da 94       	dec	r13
    1146:	69 f7       	brne	.-38     	; 0x1122 <__fp_powser+0x18>
    1148:	df 90       	pop	r13
    114a:	ef 90       	pop	r14
    114c:	ff 90       	pop	r15
    114e:	0f 91       	pop	r16
    1150:	1f 91       	pop	r17
    1152:	cf 91       	pop	r28
    1154:	df 91       	pop	r29
    1156:	08 95       	ret

00001158 <inverse>:
    1158:	9b 01       	movw	r18, r22
    115a:	ac 01       	movw	r20, r24
    115c:	60 e0       	ldi	r22, 0x00	; 0
    115e:	70 e0       	ldi	r23, 0x00	; 0
    1160:	80 e8       	ldi	r24, 0x80	; 128
    1162:	9f e3       	ldi	r25, 0x3F	; 63
    1164:	0c 94 6a 06 	jmp	0xcd4	; 0xcd4 <__divsf3>
    1168:	0c 94 3d 07 	jmp	0xe7a	; 0xe7a <__fp_inf>
    116c:	0c 94 72 09 	jmp	0x12e4	; 0x12e4 <__fp_mpack>

00001170 <ldexp>:
    1170:	0e 94 6d 07 	call	0xeda	; 0xeda <__fp_splitA>
    1174:	d8 f3       	brcs	.-10     	; 0x116c <inverse+0x14>
    1176:	99 23       	and	r25, r25
    1178:	c9 f3       	breq	.-14     	; 0x116c <inverse+0x14>
    117a:	94 0f       	add	r25, r20
    117c:	51 1d       	adc	r21, r1
    117e:	a3 f3       	brvs	.-24     	; 0x1168 <inverse+0x10>
    1180:	91 50       	subi	r25, 0x01	; 1
    1182:	50 40       	sbci	r21, 0x00	; 0
    1184:	94 f0       	brlt	.+36     	; 0x11aa <ldexp+0x3a>
    1186:	59 f0       	breq	.+22     	; 0x119e <ldexp+0x2e>
    1188:	88 23       	and	r24, r24
    118a:	32 f0       	brmi	.+12     	; 0x1198 <ldexp+0x28>
    118c:	66 0f       	add	r22, r22
    118e:	77 1f       	adc	r23, r23
    1190:	88 1f       	adc	r24, r24
    1192:	91 50       	subi	r25, 0x01	; 1
    1194:	50 40       	sbci	r21, 0x00	; 0
    1196:	c1 f7       	brne	.-16     	; 0x1188 <ldexp+0x18>
    1198:	9e 3f       	cpi	r25, 0xFE	; 254
    119a:	51 05       	cpc	r21, r1
    119c:	2c f7       	brge	.-54     	; 0x1168 <inverse+0x10>
    119e:	88 0f       	add	r24, r24
    11a0:	91 1d       	adc	r25, r1
    11a2:	96 95       	lsr	r25
    11a4:	87 95       	ror	r24
    11a6:	97 f9       	bld	r25, 7
    11a8:	08 95       	ret
    11aa:	5f 3f       	cpi	r21, 0xFF	; 255
    11ac:	ac f0       	brlt	.+42     	; 0x11d8 <ldexp+0x68>
    11ae:	98 3e       	cpi	r25, 0xE8	; 232
    11b0:	9c f0       	brlt	.+38     	; 0x11d8 <ldexp+0x68>
    11b2:	bb 27       	eor	r27, r27
    11b4:	86 95       	lsr	r24
    11b6:	77 95       	ror	r23
    11b8:	67 95       	ror	r22
    11ba:	b7 95       	ror	r27
    11bc:	08 f4       	brcc	.+2      	; 0x11c0 <ldexp+0x50>
    11be:	b1 60       	ori	r27, 0x01	; 1
    11c0:	93 95       	inc	r25
    11c2:	c1 f7       	brne	.-16     	; 0x11b4 <ldexp+0x44>
    11c4:	bb 0f       	add	r27, r27
    11c6:	58 f7       	brcc	.-42     	; 0x119e <ldexp+0x2e>
    11c8:	11 f4       	brne	.+4      	; 0x11ce <ldexp+0x5e>
    11ca:	60 ff       	sbrs	r22, 0
    11cc:	e8 cf       	rjmp	.-48     	; 0x119e <ldexp+0x2e>
    11ce:	6f 5f       	subi	r22, 0xFF	; 255
    11d0:	7f 4f       	sbci	r23, 0xFF	; 255
    11d2:	8f 4f       	sbci	r24, 0xFF	; 255
    11d4:	9f 4f       	sbci	r25, 0xFF	; 255
    11d6:	e3 cf       	rjmp	.-58     	; 0x119e <ldexp+0x2e>
    11d8:	0c 94 88 07 	jmp	0xf10	; 0xf10 <__fp_szero>
    11dc:	16 f0       	brts	.+4      	; 0x11e2 <ldexp+0x72>
    11de:	0c 94 72 09 	jmp	0x12e4	; 0x12e4 <__fp_mpack>
    11e2:	0c 94 43 07 	jmp	0xe86	; 0xe86 <__fp_nan>
    11e6:	68 94       	set
    11e8:	0c 94 3d 07 	jmp	0xe7a	; 0xe7a <__fp_inf>

000011ec <log>:
    11ec:	0e 94 6d 07 	call	0xeda	; 0xeda <__fp_splitA>
    11f0:	a8 f3       	brcs	.-22     	; 0x11dc <ldexp+0x6c>
    11f2:	99 23       	and	r25, r25
    11f4:	c1 f3       	breq	.-16     	; 0x11e6 <ldexp+0x76>
    11f6:	ae f3       	brts	.-22     	; 0x11e2 <ldexp+0x72>
    11f8:	df 93       	push	r29
    11fa:	cf 93       	push	r28
    11fc:	1f 93       	push	r17
    11fe:	0f 93       	push	r16
    1200:	ff 92       	push	r15
    1202:	c9 2f       	mov	r28, r25
    1204:	dd 27       	eor	r29, r29
    1206:	88 23       	and	r24, r24
    1208:	2a f0       	brmi	.+10     	; 0x1214 <log+0x28>
    120a:	21 97       	sbiw	r28, 0x01	; 1
    120c:	66 0f       	add	r22, r22
    120e:	77 1f       	adc	r23, r23
    1210:	88 1f       	adc	r24, r24
    1212:	da f7       	brpl	.-10     	; 0x120a <log+0x1e>
    1214:	20 e0       	ldi	r18, 0x00	; 0
    1216:	30 e0       	ldi	r19, 0x00	; 0
    1218:	40 e8       	ldi	r20, 0x80	; 128
    121a:	5f eb       	ldi	r21, 0xBF	; 191
    121c:	9f e3       	ldi	r25, 0x3F	; 63
    121e:	88 39       	cpi	r24, 0x98	; 152
    1220:	20 f0       	brcs	.+8      	; 0x122a <log+0x3e>
    1222:	80 3e       	cpi	r24, 0xE0	; 224
    1224:	38 f0       	brcs	.+14     	; 0x1234 <log+0x48>
    1226:	21 96       	adiw	r28, 0x01	; 1
    1228:	8f 77       	andi	r24, 0x7F	; 127
    122a:	0e 94 f9 05 	call	0xbf2	; 0xbf2 <__addsf3>
    122e:	e4 eb       	ldi	r30, 0xB4	; 180
    1230:	f0 e0       	ldi	r31, 0x00	; 0
    1232:	04 c0       	rjmp	.+8      	; 0x123c <log+0x50>
    1234:	0e 94 f9 05 	call	0xbf2	; 0xbf2 <__addsf3>
    1238:	e1 ee       	ldi	r30, 0xE1	; 225
    123a:	f0 e0       	ldi	r31, 0x00	; 0
    123c:	0e 94 85 08 	call	0x110a	; 0x110a <__fp_powser>
    1240:	8b 01       	movw	r16, r22
    1242:	be 01       	movw	r22, r28
    1244:	ec 01       	movw	r28, r24
    1246:	fb 2e       	mov	r15, r27
    1248:	6f 57       	subi	r22, 0x7F	; 127
    124a:	71 09       	sbc	r23, r1
    124c:	75 95       	asr	r23
    124e:	77 1f       	adc	r23, r23
    1250:	88 0b       	sbc	r24, r24
    1252:	99 0b       	sbc	r25, r25
    1254:	0e 94 de 06 	call	0xdbc	; 0xdbc <__floatsisf>
    1258:	28 e1       	ldi	r18, 0x18	; 24
    125a:	32 e7       	ldi	r19, 0x72	; 114
    125c:	41 e3       	ldi	r20, 0x31	; 49
    125e:	5f e3       	ldi	r21, 0x3F	; 63
    1260:	0e 94 a1 07 	call	0xf42	; 0xf42 <__mulsf3x>
    1264:	af 2d       	mov	r26, r15
    1266:	98 01       	movw	r18, r16
    1268:	ae 01       	movw	r20, r28
    126a:	ff 90       	pop	r15
    126c:	0f 91       	pop	r16
    126e:	1f 91       	pop	r17
    1270:	cf 91       	pop	r28
    1272:	df 91       	pop	r29
    1274:	0e 94 10 06 	call	0xc20	; 0xc20 <__addsf3x>
    1278:	0c 94 54 07 	jmp	0xea8	; 0xea8 <__fp_round>

0000127c <modf>:
    127c:	fa 01       	movw	r30, r20
    127e:	dc 01       	movw	r26, r24
    1280:	aa 0f       	add	r26, r26
    1282:	bb 1f       	adc	r27, r27
    1284:	9b 01       	movw	r18, r22
    1286:	ac 01       	movw	r20, r24
    1288:	bf 57       	subi	r27, 0x7F	; 127
    128a:	28 f4       	brcc	.+10     	; 0x1296 <modf+0x1a>
    128c:	22 27       	eor	r18, r18
    128e:	33 27       	eor	r19, r19
    1290:	44 27       	eor	r20, r20
    1292:	50 78       	andi	r21, 0x80	; 128
    1294:	20 c0       	rjmp	.+64     	; 0x12d6 <modf+0x5a>
    1296:	b7 51       	subi	r27, 0x17	; 23
    1298:	90 f4       	brcc	.+36     	; 0x12be <modf+0x42>
    129a:	ab 2f       	mov	r26, r27
    129c:	00 24       	eor	r0, r0
    129e:	46 95       	lsr	r20
    12a0:	37 95       	ror	r19
    12a2:	27 95       	ror	r18
    12a4:	01 1c       	adc	r0, r1
    12a6:	a3 95       	inc	r26
    12a8:	d2 f3       	brmi	.-12     	; 0x129e <modf+0x22>
    12aa:	00 20       	and	r0, r0
    12ac:	71 f0       	breq	.+28     	; 0x12ca <modf+0x4e>
    12ae:	22 0f       	add	r18, r18
    12b0:	33 1f       	adc	r19, r19
    12b2:	44 1f       	adc	r20, r20
    12b4:	b3 95       	inc	r27
    12b6:	da f3       	brmi	.-10     	; 0x12ae <modf+0x32>
    12b8:	0e d0       	rcall	.+28     	; 0x12d6 <modf+0x5a>
    12ba:	0c 94 f8 05 	jmp	0xbf0	; 0xbf0 <__subsf3>
    12be:	61 30       	cpi	r22, 0x01	; 1
    12c0:	71 05       	cpc	r23, r1
    12c2:	a0 e8       	ldi	r26, 0x80	; 128
    12c4:	8a 07       	cpc	r24, r26
    12c6:	b9 46       	sbci	r27, 0x69	; 105
    12c8:	30 f4       	brcc	.+12     	; 0x12d6 <modf+0x5a>
    12ca:	9b 01       	movw	r18, r22
    12cc:	ac 01       	movw	r20, r24
    12ce:	66 27       	eor	r22, r22
    12d0:	77 27       	eor	r23, r23
    12d2:	88 27       	eor	r24, r24
    12d4:	90 78       	andi	r25, 0x80	; 128
    12d6:	30 96       	adiw	r30, 0x00	; 0
    12d8:	21 f0       	breq	.+8      	; 0x12e2 <modf+0x66>
    12da:	20 83       	st	Z, r18
    12dc:	31 83       	std	Z+1, r19	; 0x01
    12de:	42 83       	std	Z+2, r20	; 0x02
    12e0:	53 83       	std	Z+3, r21	; 0x03
    12e2:	08 95       	ret

000012e4 <__fp_mpack>:
    12e4:	9f 3f       	cpi	r25, 0xFF	; 255
    12e6:	31 f0       	breq	.+12     	; 0x12f4 <__fp_mpack_finite+0xc>

000012e8 <__fp_mpack_finite>:
    12e8:	91 50       	subi	r25, 0x01	; 1
    12ea:	20 f4       	brcc	.+8      	; 0x12f4 <__fp_mpack_finite+0xc>
    12ec:	87 95       	ror	r24
    12ee:	77 95       	ror	r23
    12f0:	67 95       	ror	r22
    12f2:	b7 95       	ror	r27
    12f4:	88 0f       	add	r24, r24
    12f6:	91 1d       	adc	r25, r1
    12f8:	96 95       	lsr	r25
    12fa:	87 95       	ror	r24
    12fc:	97 f9       	bld	r25, 7
    12fe:	08 95       	ret

00001300 <vsnprintf>:
    1300:	0f 93       	push	r16
    1302:	1f 93       	push	r17
    1304:	cf 93       	push	r28
    1306:	df 93       	push	r29
    1308:	cd b7       	in	r28, 0x3d	; 61
    130a:	de b7       	in	r29, 0x3e	; 62
    130c:	2e 97       	sbiw	r28, 0x0e	; 14
    130e:	0f b6       	in	r0, 0x3f	; 63
    1310:	f8 94       	cli
    1312:	de bf       	out	0x3e, r29	; 62
    1314:	0f be       	out	0x3f, r0	; 63
    1316:	cd bf       	out	0x3d, r28	; 61
    1318:	8c 01       	movw	r16, r24
    131a:	fa 01       	movw	r30, r20
    131c:	86 e0       	ldi	r24, 0x06	; 6
    131e:	8c 83       	std	Y+4, r24	; 0x04
    1320:	1a 83       	std	Y+2, r17	; 0x02
    1322:	09 83       	std	Y+1, r16	; 0x01
    1324:	77 ff       	sbrs	r23, 7
    1326:	02 c0       	rjmp	.+4      	; 0x132c <vsnprintf+0x2c>
    1328:	60 e0       	ldi	r22, 0x00	; 0
    132a:	70 e8       	ldi	r23, 0x80	; 128
    132c:	cb 01       	movw	r24, r22
    132e:	01 97       	sbiw	r24, 0x01	; 1
    1330:	9e 83       	std	Y+6, r25	; 0x06
    1332:	8d 83       	std	Y+5, r24	; 0x05
    1334:	a9 01       	movw	r20, r18
    1336:	bf 01       	movw	r22, r30
    1338:	ce 01       	movw	r24, r28
    133a:	01 96       	adiw	r24, 0x01	; 1
    133c:	0e 94 b9 09 	call	0x1372	; 0x1372 <vfprintf>
    1340:	4d 81       	ldd	r20, Y+5	; 0x05
    1342:	5e 81       	ldd	r21, Y+6	; 0x06
    1344:	57 fd       	sbrc	r21, 7
    1346:	0a c0       	rjmp	.+20     	; 0x135c <vsnprintf+0x5c>
    1348:	2f 81       	ldd	r18, Y+7	; 0x07
    134a:	38 85       	ldd	r19, Y+8	; 0x08
    134c:	42 17       	cp	r20, r18
    134e:	53 07       	cpc	r21, r19
    1350:	0c f4       	brge	.+2      	; 0x1354 <vsnprintf+0x54>
    1352:	9a 01       	movw	r18, r20
    1354:	f8 01       	movw	r30, r16
    1356:	e2 0f       	add	r30, r18
    1358:	f3 1f       	adc	r31, r19
    135a:	10 82       	st	Z, r1
    135c:	2e 96       	adiw	r28, 0x0e	; 14
    135e:	0f b6       	in	r0, 0x3f	; 63
    1360:	f8 94       	cli
    1362:	de bf       	out	0x3e, r29	; 62
    1364:	0f be       	out	0x3f, r0	; 63
    1366:	cd bf       	out	0x3d, r28	; 61
    1368:	df 91       	pop	r29
    136a:	cf 91       	pop	r28
    136c:	1f 91       	pop	r17
    136e:	0f 91       	pop	r16
    1370:	08 95       	ret

00001372 <vfprintf>:
    1372:	2f 92       	push	r2
    1374:	3f 92       	push	r3
    1376:	4f 92       	push	r4
    1378:	5f 92       	push	r5
    137a:	6f 92       	push	r6
    137c:	7f 92       	push	r7
    137e:	8f 92       	push	r8
    1380:	9f 92       	push	r9
    1382:	af 92       	push	r10
    1384:	bf 92       	push	r11
    1386:	cf 92       	push	r12
    1388:	df 92       	push	r13
    138a:	ef 92       	push	r14
    138c:	ff 92       	push	r15
    138e:	0f 93       	push	r16
    1390:	1f 93       	push	r17
    1392:	cf 93       	push	r28
    1394:	df 93       	push	r29
    1396:	cd b7       	in	r28, 0x3d	; 61
    1398:	de b7       	in	r29, 0x3e	; 62
    139a:	2b 97       	sbiw	r28, 0x0b	; 11
    139c:	0f b6       	in	r0, 0x3f	; 63
    139e:	f8 94       	cli
    13a0:	de bf       	out	0x3e, r29	; 62
    13a2:	0f be       	out	0x3f, r0	; 63
    13a4:	cd bf       	out	0x3d, r28	; 61
    13a6:	6c 01       	movw	r12, r24
    13a8:	7b 01       	movw	r14, r22
    13aa:	8a 01       	movw	r16, r20
    13ac:	fc 01       	movw	r30, r24
    13ae:	17 82       	std	Z+7, r1	; 0x07
    13b0:	16 82       	std	Z+6, r1	; 0x06
    13b2:	83 81       	ldd	r24, Z+3	; 0x03
    13b4:	81 ff       	sbrs	r24, 1
    13b6:	cc c1       	rjmp	.+920    	; 0x1750 <vfprintf+0x3de>
    13b8:	ce 01       	movw	r24, r28
    13ba:	01 96       	adiw	r24, 0x01	; 1
    13bc:	3c 01       	movw	r6, r24
    13be:	f6 01       	movw	r30, r12
    13c0:	93 81       	ldd	r25, Z+3	; 0x03
    13c2:	f7 01       	movw	r30, r14
    13c4:	93 fd       	sbrc	r25, 3
    13c6:	85 91       	lpm	r24, Z+
    13c8:	93 ff       	sbrs	r25, 3
    13ca:	81 91       	ld	r24, Z+
    13cc:	7f 01       	movw	r14, r30
    13ce:	88 23       	and	r24, r24
    13d0:	09 f4       	brne	.+2      	; 0x13d4 <vfprintf+0x62>
    13d2:	ba c1       	rjmp	.+884    	; 0x1748 <vfprintf+0x3d6>
    13d4:	85 32       	cpi	r24, 0x25	; 37
    13d6:	39 f4       	brne	.+14     	; 0x13e6 <vfprintf+0x74>
    13d8:	93 fd       	sbrc	r25, 3
    13da:	85 91       	lpm	r24, Z+
    13dc:	93 ff       	sbrs	r25, 3
    13de:	81 91       	ld	r24, Z+
    13e0:	7f 01       	movw	r14, r30
    13e2:	85 32       	cpi	r24, 0x25	; 37
    13e4:	29 f4       	brne	.+10     	; 0x13f0 <vfprintf+0x7e>
    13e6:	b6 01       	movw	r22, r12
    13e8:	90 e0       	ldi	r25, 0x00	; 0
    13ea:	0e 94 d9 0b 	call	0x17b2	; 0x17b2 <fputc>
    13ee:	e7 cf       	rjmp	.-50     	; 0x13be <vfprintf+0x4c>
    13f0:	91 2c       	mov	r9, r1
    13f2:	21 2c       	mov	r2, r1
    13f4:	31 2c       	mov	r3, r1
    13f6:	ff e1       	ldi	r31, 0x1F	; 31
    13f8:	f3 15       	cp	r31, r3
    13fa:	d8 f0       	brcs	.+54     	; 0x1432 <vfprintf+0xc0>
    13fc:	8b 32       	cpi	r24, 0x2B	; 43
    13fe:	79 f0       	breq	.+30     	; 0x141e <vfprintf+0xac>
    1400:	38 f4       	brcc	.+14     	; 0x1410 <vfprintf+0x9e>
    1402:	80 32       	cpi	r24, 0x20	; 32
    1404:	79 f0       	breq	.+30     	; 0x1424 <vfprintf+0xb2>
    1406:	83 32       	cpi	r24, 0x23	; 35
    1408:	a1 f4       	brne	.+40     	; 0x1432 <vfprintf+0xc0>
    140a:	23 2d       	mov	r18, r3
    140c:	20 61       	ori	r18, 0x10	; 16
    140e:	1d c0       	rjmp	.+58     	; 0x144a <vfprintf+0xd8>
    1410:	8d 32       	cpi	r24, 0x2D	; 45
    1412:	61 f0       	breq	.+24     	; 0x142c <vfprintf+0xba>
    1414:	80 33       	cpi	r24, 0x30	; 48
    1416:	69 f4       	brne	.+26     	; 0x1432 <vfprintf+0xc0>
    1418:	23 2d       	mov	r18, r3
    141a:	21 60       	ori	r18, 0x01	; 1
    141c:	16 c0       	rjmp	.+44     	; 0x144a <vfprintf+0xd8>
    141e:	83 2d       	mov	r24, r3
    1420:	82 60       	ori	r24, 0x02	; 2
    1422:	38 2e       	mov	r3, r24
    1424:	e3 2d       	mov	r30, r3
    1426:	e4 60       	ori	r30, 0x04	; 4
    1428:	3e 2e       	mov	r3, r30
    142a:	2a c0       	rjmp	.+84     	; 0x1480 <vfprintf+0x10e>
    142c:	f3 2d       	mov	r31, r3
    142e:	f8 60       	ori	r31, 0x08	; 8
    1430:	1d c0       	rjmp	.+58     	; 0x146c <vfprintf+0xfa>
    1432:	37 fc       	sbrc	r3, 7
    1434:	2d c0       	rjmp	.+90     	; 0x1490 <vfprintf+0x11e>
    1436:	20 ed       	ldi	r18, 0xD0	; 208
    1438:	28 0f       	add	r18, r24
    143a:	2a 30       	cpi	r18, 0x0A	; 10
    143c:	40 f0       	brcs	.+16     	; 0x144e <vfprintf+0xdc>
    143e:	8e 32       	cpi	r24, 0x2E	; 46
    1440:	b9 f4       	brne	.+46     	; 0x1470 <vfprintf+0xfe>
    1442:	36 fc       	sbrc	r3, 6
    1444:	81 c1       	rjmp	.+770    	; 0x1748 <vfprintf+0x3d6>
    1446:	23 2d       	mov	r18, r3
    1448:	20 64       	ori	r18, 0x40	; 64
    144a:	32 2e       	mov	r3, r18
    144c:	19 c0       	rjmp	.+50     	; 0x1480 <vfprintf+0x10e>
    144e:	36 fe       	sbrs	r3, 6
    1450:	06 c0       	rjmp	.+12     	; 0x145e <vfprintf+0xec>
    1452:	8a e0       	ldi	r24, 0x0A	; 10
    1454:	98 9e       	mul	r9, r24
    1456:	20 0d       	add	r18, r0
    1458:	11 24       	eor	r1, r1
    145a:	92 2e       	mov	r9, r18
    145c:	11 c0       	rjmp	.+34     	; 0x1480 <vfprintf+0x10e>
    145e:	ea e0       	ldi	r30, 0x0A	; 10
    1460:	2e 9e       	mul	r2, r30
    1462:	20 0d       	add	r18, r0
    1464:	11 24       	eor	r1, r1
    1466:	22 2e       	mov	r2, r18
    1468:	f3 2d       	mov	r31, r3
    146a:	f0 62       	ori	r31, 0x20	; 32
    146c:	3f 2e       	mov	r3, r31
    146e:	08 c0       	rjmp	.+16     	; 0x1480 <vfprintf+0x10e>
    1470:	8c 36       	cpi	r24, 0x6C	; 108
    1472:	21 f4       	brne	.+8      	; 0x147c <vfprintf+0x10a>
    1474:	83 2d       	mov	r24, r3
    1476:	80 68       	ori	r24, 0x80	; 128
    1478:	38 2e       	mov	r3, r24
    147a:	02 c0       	rjmp	.+4      	; 0x1480 <vfprintf+0x10e>
    147c:	88 36       	cpi	r24, 0x68	; 104
    147e:	41 f4       	brne	.+16     	; 0x1490 <vfprintf+0x11e>
    1480:	f7 01       	movw	r30, r14
    1482:	93 fd       	sbrc	r25, 3
    1484:	85 91       	lpm	r24, Z+
    1486:	93 ff       	sbrs	r25, 3
    1488:	81 91       	ld	r24, Z+
    148a:	7f 01       	movw	r14, r30
    148c:	81 11       	cpse	r24, r1
    148e:	b3 cf       	rjmp	.-154    	; 0x13f6 <vfprintf+0x84>
    1490:	98 2f       	mov	r25, r24
    1492:	9f 7d       	andi	r25, 0xDF	; 223
    1494:	95 54       	subi	r25, 0x45	; 69
    1496:	93 30       	cpi	r25, 0x03	; 3
    1498:	28 f4       	brcc	.+10     	; 0x14a4 <vfprintf+0x132>
    149a:	0c 5f       	subi	r16, 0xFC	; 252
    149c:	1f 4f       	sbci	r17, 0xFF	; 255
    149e:	9f e3       	ldi	r25, 0x3F	; 63
    14a0:	99 83       	std	Y+1, r25	; 0x01
    14a2:	0d c0       	rjmp	.+26     	; 0x14be <vfprintf+0x14c>
    14a4:	83 36       	cpi	r24, 0x63	; 99
    14a6:	31 f0       	breq	.+12     	; 0x14b4 <vfprintf+0x142>
    14a8:	83 37       	cpi	r24, 0x73	; 115
    14aa:	71 f0       	breq	.+28     	; 0x14c8 <vfprintf+0x156>
    14ac:	83 35       	cpi	r24, 0x53	; 83
    14ae:	09 f0       	breq	.+2      	; 0x14b2 <vfprintf+0x140>
    14b0:	59 c0       	rjmp	.+178    	; 0x1564 <vfprintf+0x1f2>
    14b2:	21 c0       	rjmp	.+66     	; 0x14f6 <vfprintf+0x184>
    14b4:	f8 01       	movw	r30, r16
    14b6:	80 81       	ld	r24, Z
    14b8:	89 83       	std	Y+1, r24	; 0x01
    14ba:	0e 5f       	subi	r16, 0xFE	; 254
    14bc:	1f 4f       	sbci	r17, 0xFF	; 255
    14be:	88 24       	eor	r8, r8
    14c0:	83 94       	inc	r8
    14c2:	91 2c       	mov	r9, r1
    14c4:	53 01       	movw	r10, r6
    14c6:	13 c0       	rjmp	.+38     	; 0x14ee <vfprintf+0x17c>
    14c8:	28 01       	movw	r4, r16
    14ca:	f2 e0       	ldi	r31, 0x02	; 2
    14cc:	4f 0e       	add	r4, r31
    14ce:	51 1c       	adc	r5, r1
    14d0:	f8 01       	movw	r30, r16
    14d2:	a0 80       	ld	r10, Z
    14d4:	b1 80       	ldd	r11, Z+1	; 0x01
    14d6:	36 fe       	sbrs	r3, 6
    14d8:	03 c0       	rjmp	.+6      	; 0x14e0 <vfprintf+0x16e>
    14da:	69 2d       	mov	r22, r9
    14dc:	70 e0       	ldi	r23, 0x00	; 0
    14de:	02 c0       	rjmp	.+4      	; 0x14e4 <vfprintf+0x172>
    14e0:	6f ef       	ldi	r22, 0xFF	; 255
    14e2:	7f ef       	ldi	r23, 0xFF	; 255
    14e4:	c5 01       	movw	r24, r10
    14e6:	0e 94 ce 0b 	call	0x179c	; 0x179c <strnlen>
    14ea:	4c 01       	movw	r8, r24
    14ec:	82 01       	movw	r16, r4
    14ee:	f3 2d       	mov	r31, r3
    14f0:	ff 77       	andi	r31, 0x7F	; 127
    14f2:	3f 2e       	mov	r3, r31
    14f4:	16 c0       	rjmp	.+44     	; 0x1522 <vfprintf+0x1b0>
    14f6:	28 01       	movw	r4, r16
    14f8:	22 e0       	ldi	r18, 0x02	; 2
    14fa:	42 0e       	add	r4, r18
    14fc:	51 1c       	adc	r5, r1
    14fe:	f8 01       	movw	r30, r16
    1500:	a0 80       	ld	r10, Z
    1502:	b1 80       	ldd	r11, Z+1	; 0x01
    1504:	36 fe       	sbrs	r3, 6
    1506:	03 c0       	rjmp	.+6      	; 0x150e <vfprintf+0x19c>
    1508:	69 2d       	mov	r22, r9
    150a:	70 e0       	ldi	r23, 0x00	; 0
    150c:	02 c0       	rjmp	.+4      	; 0x1512 <vfprintf+0x1a0>
    150e:	6f ef       	ldi	r22, 0xFF	; 255
    1510:	7f ef       	ldi	r23, 0xFF	; 255
    1512:	c5 01       	movw	r24, r10
    1514:	0e 94 c3 0b 	call	0x1786	; 0x1786 <strnlen_P>
    1518:	4c 01       	movw	r8, r24
    151a:	f3 2d       	mov	r31, r3
    151c:	f0 68       	ori	r31, 0x80	; 128
    151e:	3f 2e       	mov	r3, r31
    1520:	82 01       	movw	r16, r4
    1522:	33 fc       	sbrc	r3, 3
    1524:	1b c0       	rjmp	.+54     	; 0x155c <vfprintf+0x1ea>
    1526:	82 2d       	mov	r24, r2
    1528:	90 e0       	ldi	r25, 0x00	; 0
    152a:	88 16       	cp	r8, r24
    152c:	99 06       	cpc	r9, r25
    152e:	b0 f4       	brcc	.+44     	; 0x155c <vfprintf+0x1ea>
    1530:	b6 01       	movw	r22, r12
    1532:	80 e2       	ldi	r24, 0x20	; 32
    1534:	90 e0       	ldi	r25, 0x00	; 0
    1536:	0e 94 d9 0b 	call	0x17b2	; 0x17b2 <fputc>
    153a:	2a 94       	dec	r2
    153c:	f4 cf       	rjmp	.-24     	; 0x1526 <vfprintf+0x1b4>
    153e:	f5 01       	movw	r30, r10
    1540:	37 fc       	sbrc	r3, 7
    1542:	85 91       	lpm	r24, Z+
    1544:	37 fe       	sbrs	r3, 7
    1546:	81 91       	ld	r24, Z+
    1548:	5f 01       	movw	r10, r30
    154a:	b6 01       	movw	r22, r12
    154c:	90 e0       	ldi	r25, 0x00	; 0
    154e:	0e 94 d9 0b 	call	0x17b2	; 0x17b2 <fputc>
    1552:	21 10       	cpse	r2, r1
    1554:	2a 94       	dec	r2
    1556:	21 e0       	ldi	r18, 0x01	; 1
    1558:	82 1a       	sub	r8, r18
    155a:	91 08       	sbc	r9, r1
    155c:	81 14       	cp	r8, r1
    155e:	91 04       	cpc	r9, r1
    1560:	71 f7       	brne	.-36     	; 0x153e <vfprintf+0x1cc>
    1562:	e8 c0       	rjmp	.+464    	; 0x1734 <vfprintf+0x3c2>
    1564:	84 36       	cpi	r24, 0x64	; 100
    1566:	11 f0       	breq	.+4      	; 0x156c <vfprintf+0x1fa>
    1568:	89 36       	cpi	r24, 0x69	; 105
    156a:	41 f5       	brne	.+80     	; 0x15bc <vfprintf+0x24a>
    156c:	f8 01       	movw	r30, r16
    156e:	37 fe       	sbrs	r3, 7
    1570:	07 c0       	rjmp	.+14     	; 0x1580 <vfprintf+0x20e>
    1572:	60 81       	ld	r22, Z
    1574:	71 81       	ldd	r23, Z+1	; 0x01
    1576:	82 81       	ldd	r24, Z+2	; 0x02
    1578:	93 81       	ldd	r25, Z+3	; 0x03
    157a:	0c 5f       	subi	r16, 0xFC	; 252
    157c:	1f 4f       	sbci	r17, 0xFF	; 255
    157e:	08 c0       	rjmp	.+16     	; 0x1590 <vfprintf+0x21e>
    1580:	60 81       	ld	r22, Z
    1582:	71 81       	ldd	r23, Z+1	; 0x01
    1584:	07 2e       	mov	r0, r23
    1586:	00 0c       	add	r0, r0
    1588:	88 0b       	sbc	r24, r24
    158a:	99 0b       	sbc	r25, r25
    158c:	0e 5f       	subi	r16, 0xFE	; 254
    158e:	1f 4f       	sbci	r17, 0xFF	; 255
    1590:	f3 2d       	mov	r31, r3
    1592:	ff 76       	andi	r31, 0x6F	; 111
    1594:	3f 2e       	mov	r3, r31
    1596:	97 ff       	sbrs	r25, 7
    1598:	09 c0       	rjmp	.+18     	; 0x15ac <vfprintf+0x23a>
    159a:	90 95       	com	r25
    159c:	80 95       	com	r24
    159e:	70 95       	com	r23
    15a0:	61 95       	neg	r22
    15a2:	7f 4f       	sbci	r23, 0xFF	; 255
    15a4:	8f 4f       	sbci	r24, 0xFF	; 255
    15a6:	9f 4f       	sbci	r25, 0xFF	; 255
    15a8:	f0 68       	ori	r31, 0x80	; 128
    15aa:	3f 2e       	mov	r3, r31
    15ac:	2a e0       	ldi	r18, 0x0A	; 10
    15ae:	30 e0       	ldi	r19, 0x00	; 0
    15b0:	a3 01       	movw	r20, r6
    15b2:	0e 94 15 0c 	call	0x182a	; 0x182a <__ultoa_invert>
    15b6:	88 2e       	mov	r8, r24
    15b8:	86 18       	sub	r8, r6
    15ba:	45 c0       	rjmp	.+138    	; 0x1646 <vfprintf+0x2d4>
    15bc:	85 37       	cpi	r24, 0x75	; 117
    15be:	31 f4       	brne	.+12     	; 0x15cc <vfprintf+0x25a>
    15c0:	23 2d       	mov	r18, r3
    15c2:	2f 7e       	andi	r18, 0xEF	; 239
    15c4:	b2 2e       	mov	r11, r18
    15c6:	2a e0       	ldi	r18, 0x0A	; 10
    15c8:	30 e0       	ldi	r19, 0x00	; 0
    15ca:	25 c0       	rjmp	.+74     	; 0x1616 <vfprintf+0x2a4>
    15cc:	93 2d       	mov	r25, r3
    15ce:	99 7f       	andi	r25, 0xF9	; 249
    15d0:	b9 2e       	mov	r11, r25
    15d2:	8f 36       	cpi	r24, 0x6F	; 111
    15d4:	c1 f0       	breq	.+48     	; 0x1606 <vfprintf+0x294>
    15d6:	18 f4       	brcc	.+6      	; 0x15de <vfprintf+0x26c>
    15d8:	88 35       	cpi	r24, 0x58	; 88
    15da:	79 f0       	breq	.+30     	; 0x15fa <vfprintf+0x288>
    15dc:	b5 c0       	rjmp	.+362    	; 0x1748 <vfprintf+0x3d6>
    15de:	80 37       	cpi	r24, 0x70	; 112
    15e0:	19 f0       	breq	.+6      	; 0x15e8 <vfprintf+0x276>
    15e2:	88 37       	cpi	r24, 0x78	; 120
    15e4:	21 f0       	breq	.+8      	; 0x15ee <vfprintf+0x27c>
    15e6:	b0 c0       	rjmp	.+352    	; 0x1748 <vfprintf+0x3d6>
    15e8:	e9 2f       	mov	r30, r25
    15ea:	e0 61       	ori	r30, 0x10	; 16
    15ec:	be 2e       	mov	r11, r30
    15ee:	b4 fe       	sbrs	r11, 4
    15f0:	0d c0       	rjmp	.+26     	; 0x160c <vfprintf+0x29a>
    15f2:	fb 2d       	mov	r31, r11
    15f4:	f4 60       	ori	r31, 0x04	; 4
    15f6:	bf 2e       	mov	r11, r31
    15f8:	09 c0       	rjmp	.+18     	; 0x160c <vfprintf+0x29a>
    15fa:	34 fe       	sbrs	r3, 4
    15fc:	0a c0       	rjmp	.+20     	; 0x1612 <vfprintf+0x2a0>
    15fe:	29 2f       	mov	r18, r25
    1600:	26 60       	ori	r18, 0x06	; 6
    1602:	b2 2e       	mov	r11, r18
    1604:	06 c0       	rjmp	.+12     	; 0x1612 <vfprintf+0x2a0>
    1606:	28 e0       	ldi	r18, 0x08	; 8
    1608:	30 e0       	ldi	r19, 0x00	; 0
    160a:	05 c0       	rjmp	.+10     	; 0x1616 <vfprintf+0x2a4>
    160c:	20 e1       	ldi	r18, 0x10	; 16
    160e:	30 e0       	ldi	r19, 0x00	; 0
    1610:	02 c0       	rjmp	.+4      	; 0x1616 <vfprintf+0x2a4>
    1612:	20 e1       	ldi	r18, 0x10	; 16
    1614:	32 e0       	ldi	r19, 0x02	; 2
    1616:	f8 01       	movw	r30, r16
    1618:	b7 fe       	sbrs	r11, 7
    161a:	07 c0       	rjmp	.+14     	; 0x162a <vfprintf+0x2b8>
    161c:	60 81       	ld	r22, Z
    161e:	71 81       	ldd	r23, Z+1	; 0x01
    1620:	82 81       	ldd	r24, Z+2	; 0x02
    1622:	93 81       	ldd	r25, Z+3	; 0x03
    1624:	0c 5f       	subi	r16, 0xFC	; 252
    1626:	1f 4f       	sbci	r17, 0xFF	; 255
    1628:	06 c0       	rjmp	.+12     	; 0x1636 <vfprintf+0x2c4>
    162a:	60 81       	ld	r22, Z
    162c:	71 81       	ldd	r23, Z+1	; 0x01
    162e:	80 e0       	ldi	r24, 0x00	; 0
    1630:	90 e0       	ldi	r25, 0x00	; 0
    1632:	0e 5f       	subi	r16, 0xFE	; 254
    1634:	1f 4f       	sbci	r17, 0xFF	; 255
    1636:	a3 01       	movw	r20, r6
    1638:	0e 94 15 0c 	call	0x182a	; 0x182a <__ultoa_invert>
    163c:	88 2e       	mov	r8, r24
    163e:	86 18       	sub	r8, r6
    1640:	fb 2d       	mov	r31, r11
    1642:	ff 77       	andi	r31, 0x7F	; 127
    1644:	3f 2e       	mov	r3, r31
    1646:	36 fe       	sbrs	r3, 6
    1648:	0d c0       	rjmp	.+26     	; 0x1664 <vfprintf+0x2f2>
    164a:	23 2d       	mov	r18, r3
    164c:	2e 7f       	andi	r18, 0xFE	; 254
    164e:	a2 2e       	mov	r10, r18
    1650:	89 14       	cp	r8, r9
    1652:	58 f4       	brcc	.+22     	; 0x166a <vfprintf+0x2f8>
    1654:	34 fe       	sbrs	r3, 4
    1656:	0b c0       	rjmp	.+22     	; 0x166e <vfprintf+0x2fc>
    1658:	32 fc       	sbrc	r3, 2
    165a:	09 c0       	rjmp	.+18     	; 0x166e <vfprintf+0x2fc>
    165c:	83 2d       	mov	r24, r3
    165e:	8e 7e       	andi	r24, 0xEE	; 238
    1660:	a8 2e       	mov	r10, r24
    1662:	05 c0       	rjmp	.+10     	; 0x166e <vfprintf+0x2fc>
    1664:	b8 2c       	mov	r11, r8
    1666:	a3 2c       	mov	r10, r3
    1668:	03 c0       	rjmp	.+6      	; 0x1670 <vfprintf+0x2fe>
    166a:	b8 2c       	mov	r11, r8
    166c:	01 c0       	rjmp	.+2      	; 0x1670 <vfprintf+0x2fe>
    166e:	b9 2c       	mov	r11, r9
    1670:	a4 fe       	sbrs	r10, 4
    1672:	0f c0       	rjmp	.+30     	; 0x1692 <vfprintf+0x320>
    1674:	fe 01       	movw	r30, r28
    1676:	e8 0d       	add	r30, r8
    1678:	f1 1d       	adc	r31, r1
    167a:	80 81       	ld	r24, Z
    167c:	80 33       	cpi	r24, 0x30	; 48
    167e:	21 f4       	brne	.+8      	; 0x1688 <vfprintf+0x316>
    1680:	9a 2d       	mov	r25, r10
    1682:	99 7e       	andi	r25, 0xE9	; 233
    1684:	a9 2e       	mov	r10, r25
    1686:	09 c0       	rjmp	.+18     	; 0x169a <vfprintf+0x328>
    1688:	a2 fe       	sbrs	r10, 2
    168a:	06 c0       	rjmp	.+12     	; 0x1698 <vfprintf+0x326>
    168c:	b3 94       	inc	r11
    168e:	b3 94       	inc	r11
    1690:	04 c0       	rjmp	.+8      	; 0x169a <vfprintf+0x328>
    1692:	8a 2d       	mov	r24, r10
    1694:	86 78       	andi	r24, 0x86	; 134
    1696:	09 f0       	breq	.+2      	; 0x169a <vfprintf+0x328>
    1698:	b3 94       	inc	r11
    169a:	a3 fc       	sbrc	r10, 3
    169c:	11 c0       	rjmp	.+34     	; 0x16c0 <vfprintf+0x34e>
    169e:	a0 fe       	sbrs	r10, 0
    16a0:	06 c0       	rjmp	.+12     	; 0x16ae <vfprintf+0x33c>
    16a2:	b2 14       	cp	r11, r2
    16a4:	88 f4       	brcc	.+34     	; 0x16c8 <vfprintf+0x356>
    16a6:	28 0c       	add	r2, r8
    16a8:	92 2c       	mov	r9, r2
    16aa:	9b 18       	sub	r9, r11
    16ac:	0e c0       	rjmp	.+28     	; 0x16ca <vfprintf+0x358>
    16ae:	b2 14       	cp	r11, r2
    16b0:	60 f4       	brcc	.+24     	; 0x16ca <vfprintf+0x358>
    16b2:	b6 01       	movw	r22, r12
    16b4:	80 e2       	ldi	r24, 0x20	; 32
    16b6:	90 e0       	ldi	r25, 0x00	; 0
    16b8:	0e 94 d9 0b 	call	0x17b2	; 0x17b2 <fputc>
    16bc:	b3 94       	inc	r11
    16be:	f7 cf       	rjmp	.-18     	; 0x16ae <vfprintf+0x33c>
    16c0:	b2 14       	cp	r11, r2
    16c2:	18 f4       	brcc	.+6      	; 0x16ca <vfprintf+0x358>
    16c4:	2b 18       	sub	r2, r11
    16c6:	02 c0       	rjmp	.+4      	; 0x16cc <vfprintf+0x35a>
    16c8:	98 2c       	mov	r9, r8
    16ca:	21 2c       	mov	r2, r1
    16cc:	a4 fe       	sbrs	r10, 4
    16ce:	10 c0       	rjmp	.+32     	; 0x16f0 <vfprintf+0x37e>
    16d0:	b6 01       	movw	r22, r12
    16d2:	80 e3       	ldi	r24, 0x30	; 48
    16d4:	90 e0       	ldi	r25, 0x00	; 0
    16d6:	0e 94 d9 0b 	call	0x17b2	; 0x17b2 <fputc>
    16da:	a2 fe       	sbrs	r10, 2
    16dc:	17 c0       	rjmp	.+46     	; 0x170c <vfprintf+0x39a>
    16de:	a1 fc       	sbrc	r10, 1
    16e0:	03 c0       	rjmp	.+6      	; 0x16e8 <vfprintf+0x376>
    16e2:	88 e7       	ldi	r24, 0x78	; 120
    16e4:	90 e0       	ldi	r25, 0x00	; 0
    16e6:	02 c0       	rjmp	.+4      	; 0x16ec <vfprintf+0x37a>
    16e8:	88 e5       	ldi	r24, 0x58	; 88
    16ea:	90 e0       	ldi	r25, 0x00	; 0
    16ec:	b6 01       	movw	r22, r12
    16ee:	0c c0       	rjmp	.+24     	; 0x1708 <vfprintf+0x396>
    16f0:	8a 2d       	mov	r24, r10
    16f2:	86 78       	andi	r24, 0x86	; 134
    16f4:	59 f0       	breq	.+22     	; 0x170c <vfprintf+0x39a>
    16f6:	a1 fe       	sbrs	r10, 1
    16f8:	02 c0       	rjmp	.+4      	; 0x16fe <vfprintf+0x38c>
    16fa:	8b e2       	ldi	r24, 0x2B	; 43
    16fc:	01 c0       	rjmp	.+2      	; 0x1700 <vfprintf+0x38e>
    16fe:	80 e2       	ldi	r24, 0x20	; 32
    1700:	a7 fc       	sbrc	r10, 7
    1702:	8d e2       	ldi	r24, 0x2D	; 45
    1704:	b6 01       	movw	r22, r12
    1706:	90 e0       	ldi	r25, 0x00	; 0
    1708:	0e 94 d9 0b 	call	0x17b2	; 0x17b2 <fputc>
    170c:	89 14       	cp	r8, r9
    170e:	38 f4       	brcc	.+14     	; 0x171e <vfprintf+0x3ac>
    1710:	b6 01       	movw	r22, r12
    1712:	80 e3       	ldi	r24, 0x30	; 48
    1714:	90 e0       	ldi	r25, 0x00	; 0
    1716:	0e 94 d9 0b 	call	0x17b2	; 0x17b2 <fputc>
    171a:	9a 94       	dec	r9
    171c:	f7 cf       	rjmp	.-18     	; 0x170c <vfprintf+0x39a>
    171e:	8a 94       	dec	r8
    1720:	f3 01       	movw	r30, r6
    1722:	e8 0d       	add	r30, r8
    1724:	f1 1d       	adc	r31, r1
    1726:	80 81       	ld	r24, Z
    1728:	b6 01       	movw	r22, r12
    172a:	90 e0       	ldi	r25, 0x00	; 0
    172c:	0e 94 d9 0b 	call	0x17b2	; 0x17b2 <fputc>
    1730:	81 10       	cpse	r8, r1
    1732:	f5 cf       	rjmp	.-22     	; 0x171e <vfprintf+0x3ac>
    1734:	22 20       	and	r2, r2
    1736:	09 f4       	brne	.+2      	; 0x173a <vfprintf+0x3c8>
    1738:	42 ce       	rjmp	.-892    	; 0x13be <vfprintf+0x4c>
    173a:	b6 01       	movw	r22, r12
    173c:	80 e2       	ldi	r24, 0x20	; 32
    173e:	90 e0       	ldi	r25, 0x00	; 0
    1740:	0e 94 d9 0b 	call	0x17b2	; 0x17b2 <fputc>
    1744:	2a 94       	dec	r2
    1746:	f6 cf       	rjmp	.-20     	; 0x1734 <vfprintf+0x3c2>
    1748:	f6 01       	movw	r30, r12
    174a:	86 81       	ldd	r24, Z+6	; 0x06
    174c:	97 81       	ldd	r25, Z+7	; 0x07
    174e:	02 c0       	rjmp	.+4      	; 0x1754 <vfprintf+0x3e2>
    1750:	8f ef       	ldi	r24, 0xFF	; 255
    1752:	9f ef       	ldi	r25, 0xFF	; 255
    1754:	2b 96       	adiw	r28, 0x0b	; 11
    1756:	0f b6       	in	r0, 0x3f	; 63
    1758:	f8 94       	cli
    175a:	de bf       	out	0x3e, r29	; 62
    175c:	0f be       	out	0x3f, r0	; 63
    175e:	cd bf       	out	0x3d, r28	; 61
    1760:	df 91       	pop	r29
    1762:	cf 91       	pop	r28
    1764:	1f 91       	pop	r17
    1766:	0f 91       	pop	r16
    1768:	ff 90       	pop	r15
    176a:	ef 90       	pop	r14
    176c:	df 90       	pop	r13
    176e:	cf 90       	pop	r12
    1770:	bf 90       	pop	r11
    1772:	af 90       	pop	r10
    1774:	9f 90       	pop	r9
    1776:	8f 90       	pop	r8
    1778:	7f 90       	pop	r7
    177a:	6f 90       	pop	r6
    177c:	5f 90       	pop	r5
    177e:	4f 90       	pop	r4
    1780:	3f 90       	pop	r3
    1782:	2f 90       	pop	r2
    1784:	08 95       	ret

00001786 <strnlen_P>:
    1786:	fc 01       	movw	r30, r24
    1788:	05 90       	lpm	r0, Z+
    178a:	61 50       	subi	r22, 0x01	; 1
    178c:	70 40       	sbci	r23, 0x00	; 0
    178e:	01 10       	cpse	r0, r1
    1790:	d8 f7       	brcc	.-10     	; 0x1788 <strnlen_P+0x2>
    1792:	80 95       	com	r24
    1794:	90 95       	com	r25
    1796:	8e 0f       	add	r24, r30
    1798:	9f 1f       	adc	r25, r31
    179a:	08 95       	ret

0000179c <strnlen>:
    179c:	fc 01       	movw	r30, r24
    179e:	61 50       	subi	r22, 0x01	; 1
    17a0:	70 40       	sbci	r23, 0x00	; 0
    17a2:	01 90       	ld	r0, Z+
    17a4:	01 10       	cpse	r0, r1
    17a6:	d8 f7       	brcc	.-10     	; 0x179e <strnlen+0x2>
    17a8:	80 95       	com	r24
    17aa:	90 95       	com	r25
    17ac:	8e 0f       	add	r24, r30
    17ae:	9f 1f       	adc	r25, r31
    17b0:	08 95       	ret

000017b2 <fputc>:
    17b2:	0f 93       	push	r16
    17b4:	1f 93       	push	r17
    17b6:	cf 93       	push	r28
    17b8:	df 93       	push	r29
    17ba:	fb 01       	movw	r30, r22
    17bc:	23 81       	ldd	r18, Z+3	; 0x03
    17be:	21 fd       	sbrc	r18, 1
    17c0:	03 c0       	rjmp	.+6      	; 0x17c8 <fputc+0x16>
    17c2:	8f ef       	ldi	r24, 0xFF	; 255
    17c4:	9f ef       	ldi	r25, 0xFF	; 255
    17c6:	2c c0       	rjmp	.+88     	; 0x1820 <fputc+0x6e>
    17c8:	22 ff       	sbrs	r18, 2
    17ca:	16 c0       	rjmp	.+44     	; 0x17f8 <fputc+0x46>
    17cc:	46 81       	ldd	r20, Z+6	; 0x06
    17ce:	57 81       	ldd	r21, Z+7	; 0x07
    17d0:	24 81       	ldd	r18, Z+4	; 0x04
    17d2:	35 81       	ldd	r19, Z+5	; 0x05
    17d4:	42 17       	cp	r20, r18
    17d6:	53 07       	cpc	r21, r19
    17d8:	44 f4       	brge	.+16     	; 0x17ea <fputc+0x38>
    17da:	a0 81       	ld	r26, Z
    17dc:	b1 81       	ldd	r27, Z+1	; 0x01
    17de:	9d 01       	movw	r18, r26
    17e0:	2f 5f       	subi	r18, 0xFF	; 255
    17e2:	3f 4f       	sbci	r19, 0xFF	; 255
    17e4:	31 83       	std	Z+1, r19	; 0x01
    17e6:	20 83       	st	Z, r18
    17e8:	8c 93       	st	X, r24
    17ea:	26 81       	ldd	r18, Z+6	; 0x06
    17ec:	37 81       	ldd	r19, Z+7	; 0x07
    17ee:	2f 5f       	subi	r18, 0xFF	; 255
    17f0:	3f 4f       	sbci	r19, 0xFF	; 255
    17f2:	37 83       	std	Z+7, r19	; 0x07
    17f4:	26 83       	std	Z+6, r18	; 0x06
    17f6:	14 c0       	rjmp	.+40     	; 0x1820 <fputc+0x6e>
    17f8:	8b 01       	movw	r16, r22
    17fa:	ec 01       	movw	r28, r24
    17fc:	fb 01       	movw	r30, r22
    17fe:	00 84       	ldd	r0, Z+8	; 0x08
    1800:	f1 85       	ldd	r31, Z+9	; 0x09
    1802:	e0 2d       	mov	r30, r0
    1804:	09 95       	icall
    1806:	89 2b       	or	r24, r25
    1808:	e1 f6       	brne	.-72     	; 0x17c2 <fputc+0x10>
    180a:	d8 01       	movw	r26, r16
    180c:	16 96       	adiw	r26, 0x06	; 6
    180e:	8d 91       	ld	r24, X+
    1810:	9c 91       	ld	r25, X
    1812:	17 97       	sbiw	r26, 0x07	; 7
    1814:	01 96       	adiw	r24, 0x01	; 1
    1816:	17 96       	adiw	r26, 0x07	; 7
    1818:	9c 93       	st	X, r25
    181a:	8e 93       	st	-X, r24
    181c:	16 97       	sbiw	r26, 0x06	; 6
    181e:	ce 01       	movw	r24, r28
    1820:	df 91       	pop	r29
    1822:	cf 91       	pop	r28
    1824:	1f 91       	pop	r17
    1826:	0f 91       	pop	r16
    1828:	08 95       	ret

0000182a <__ultoa_invert>:
    182a:	fa 01       	movw	r30, r20
    182c:	aa 27       	eor	r26, r26
    182e:	28 30       	cpi	r18, 0x08	; 8
    1830:	51 f1       	breq	.+84     	; 0x1886 <__ultoa_invert+0x5c>
    1832:	20 31       	cpi	r18, 0x10	; 16
    1834:	81 f1       	breq	.+96     	; 0x1896 <__ultoa_invert+0x6c>
    1836:	e8 94       	clt
    1838:	6f 93       	push	r22
    183a:	6e 7f       	andi	r22, 0xFE	; 254
    183c:	6e 5f       	subi	r22, 0xFE	; 254
    183e:	7f 4f       	sbci	r23, 0xFF	; 255
    1840:	8f 4f       	sbci	r24, 0xFF	; 255
    1842:	9f 4f       	sbci	r25, 0xFF	; 255
    1844:	af 4f       	sbci	r26, 0xFF	; 255
    1846:	b1 e0       	ldi	r27, 0x01	; 1
    1848:	3e d0       	rcall	.+124    	; 0x18c6 <__ultoa_invert+0x9c>
    184a:	b4 e0       	ldi	r27, 0x04	; 4
    184c:	3c d0       	rcall	.+120    	; 0x18c6 <__ultoa_invert+0x9c>
    184e:	67 0f       	add	r22, r23
    1850:	78 1f       	adc	r23, r24
    1852:	89 1f       	adc	r24, r25
    1854:	9a 1f       	adc	r25, r26
    1856:	a1 1d       	adc	r26, r1
    1858:	68 0f       	add	r22, r24
    185a:	79 1f       	adc	r23, r25
    185c:	8a 1f       	adc	r24, r26
    185e:	91 1d       	adc	r25, r1
    1860:	a1 1d       	adc	r26, r1
    1862:	6a 0f       	add	r22, r26
    1864:	71 1d       	adc	r23, r1
    1866:	81 1d       	adc	r24, r1
    1868:	91 1d       	adc	r25, r1
    186a:	a1 1d       	adc	r26, r1
    186c:	20 d0       	rcall	.+64     	; 0x18ae <__ultoa_invert+0x84>
    186e:	09 f4       	brne	.+2      	; 0x1872 <__ultoa_invert+0x48>
    1870:	68 94       	set
    1872:	3f 91       	pop	r19
    1874:	2a e0       	ldi	r18, 0x0A	; 10
    1876:	26 9f       	mul	r18, r22
    1878:	11 24       	eor	r1, r1
    187a:	30 19       	sub	r19, r0
    187c:	30 5d       	subi	r19, 0xD0	; 208
    187e:	31 93       	st	Z+, r19
    1880:	de f6       	brtc	.-74     	; 0x1838 <__ultoa_invert+0xe>
    1882:	cf 01       	movw	r24, r30
    1884:	08 95       	ret
    1886:	46 2f       	mov	r20, r22
    1888:	47 70       	andi	r20, 0x07	; 7
    188a:	40 5d       	subi	r20, 0xD0	; 208
    188c:	41 93       	st	Z+, r20
    188e:	b3 e0       	ldi	r27, 0x03	; 3
    1890:	0f d0       	rcall	.+30     	; 0x18b0 <__ultoa_invert+0x86>
    1892:	c9 f7       	brne	.-14     	; 0x1886 <__ultoa_invert+0x5c>
    1894:	f6 cf       	rjmp	.-20     	; 0x1882 <__ultoa_invert+0x58>
    1896:	46 2f       	mov	r20, r22
    1898:	4f 70       	andi	r20, 0x0F	; 15
    189a:	40 5d       	subi	r20, 0xD0	; 208
    189c:	4a 33       	cpi	r20, 0x3A	; 58
    189e:	18 f0       	brcs	.+6      	; 0x18a6 <__ultoa_invert+0x7c>
    18a0:	49 5d       	subi	r20, 0xD9	; 217
    18a2:	31 fd       	sbrc	r19, 1
    18a4:	40 52       	subi	r20, 0x20	; 32
    18a6:	41 93       	st	Z+, r20
    18a8:	02 d0       	rcall	.+4      	; 0x18ae <__ultoa_invert+0x84>
    18aa:	a9 f7       	brne	.-22     	; 0x1896 <__ultoa_invert+0x6c>
    18ac:	ea cf       	rjmp	.-44     	; 0x1882 <__ultoa_invert+0x58>
    18ae:	b4 e0       	ldi	r27, 0x04	; 4
    18b0:	a6 95       	lsr	r26
    18b2:	97 95       	ror	r25
    18b4:	87 95       	ror	r24
    18b6:	77 95       	ror	r23
    18b8:	67 95       	ror	r22
    18ba:	ba 95       	dec	r27
    18bc:	c9 f7       	brne	.-14     	; 0x18b0 <__ultoa_invert+0x86>
    18be:	00 97       	sbiw	r24, 0x00	; 0
    18c0:	61 05       	cpc	r22, r1
    18c2:	71 05       	cpc	r23, r1
    18c4:	08 95       	ret
    18c6:	9b 01       	movw	r18, r22
    18c8:	ac 01       	movw	r20, r24
    18ca:	0a 2e       	mov	r0, r26
    18cc:	06 94       	lsr	r0
    18ce:	57 95       	ror	r21
    18d0:	47 95       	ror	r20
    18d2:	37 95       	ror	r19
    18d4:	27 95       	ror	r18
    18d6:	ba 95       	dec	r27
    18d8:	c9 f7       	brne	.-14     	; 0x18cc <__ultoa_invert+0xa2>
    18da:	62 0f       	add	r22, r18
    18dc:	73 1f       	adc	r23, r19
    18de:	84 1f       	adc	r24, r20
    18e0:	95 1f       	adc	r25, r21
    18e2:	a0 1d       	adc	r26, r0
    18e4:	08 95       	ret

000018e6 <_exit>:
    18e6:	f8 94       	cli

000018e8 <__stop_program>:
    18e8:	ff cf       	rjmp	.-2      	; 0x18e8 <__stop_program>
